
UNIWERSALNY_STEROWNIK.elf:     file format elf32-avr

Sections:
Idx Name          Size      VMA       LMA       File off  Algn
  0 .data         0000026a  00800100  00002df6  00002eaa  2**0
                  CONTENTS, ALLOC, LOAD, DATA
  1 .text         00002df6  00000000  00000000  000000b4  2**1
                  CONTENTS, ALLOC, LOAD, READONLY, CODE
  2 .bss          0000018d  0080036a  0080036a  00003114  2**0
                  ALLOC
  3 .eeprom       0000008c  00810000  00810000  00003114  2**0
                  CONTENTS, ALLOC, LOAD, DATA

Disassembly of section .text:

00000000 <__vectors>:
       0:	0c 94 81 00 	jmp	0x102	; 0x102 <__ctors_end>
       4:	0c 94 e7 04 	jmp	0x9ce	; 0x9ce <__vector_1>
       8:	0c 94 9e 00 	jmp	0x13c	; 0x13c <__bad_interrupt>
       c:	0c 94 9e 00 	jmp	0x13c	; 0x13c <__bad_interrupt>
      10:	0c 94 9e 00 	jmp	0x13c	; 0x13c <__bad_interrupt>
      14:	0c 94 9e 00 	jmp	0x13c	; 0x13c <__bad_interrupt>
      18:	0c 94 9e 00 	jmp	0x13c	; 0x13c <__bad_interrupt>
      1c:	0c 94 9e 00 	jmp	0x13c	; 0x13c <__bad_interrupt>
      20:	0c 94 9e 00 	jmp	0x13c	; 0x13c <__bad_interrupt>
      24:	0c 94 9e 00 	jmp	0x13c	; 0x13c <__bad_interrupt>
      28:	0c 94 9e 00 	jmp	0x13c	; 0x13c <__bad_interrupt>
      2c:	0c 94 9e 00 	jmp	0x13c	; 0x13c <__bad_interrupt>
      30:	0c 94 9e 00 	jmp	0x13c	; 0x13c <__bad_interrupt>
      34:	0c 94 9e 00 	jmp	0x13c	; 0x13c <__bad_interrupt>
      38:	0c 94 9e 00 	jmp	0x13c	; 0x13c <__bad_interrupt>
      3c:	0c 94 9e 00 	jmp	0x13c	; 0x13c <__bad_interrupt>
      40:	0c 94 01 05 	jmp	0xa02	; 0xa02 <__vector_16>
      44:	0c 94 9e 00 	jmp	0x13c	; 0x13c <__bad_interrupt>
      48:	0c 94 9e 00 	jmp	0x13c	; 0x13c <__bad_interrupt>
      4c:	0c 94 9e 00 	jmp	0x13c	; 0x13c <__bad_interrupt>
      50:	0c 94 9e 00 	jmp	0x13c	; 0x13c <__bad_interrupt>
      54:	0c 94 9e 00 	jmp	0x13c	; 0x13c <__bad_interrupt>
      58:	0c 94 9e 00 	jmp	0x13c	; 0x13c <__bad_interrupt>
      5c:	0c 94 9e 00 	jmp	0x13c	; 0x13c <__bad_interrupt>
      60:	0c 94 4f 01 	jmp	0x29e	; 0x29e <__vector_24>
      64:	0c 94 9e 00 	jmp	0x13c	; 0x13c <__bad_interrupt>
      68:	0c 94 9e 00 	jmp	0x13c	; 0x13c <__bad_interrupt>
      6c:	0c 94 9e 00 	jmp	0x13c	; 0x13c <__bad_interrupt>
      70:	0c 94 9e 00 	jmp	0x13c	; 0x13c <__bad_interrupt>
      74:	0c 94 9e 00 	jmp	0x13c	; 0x13c <__bad_interrupt>
      78:	0c 94 9e 00 	jmp	0x13c	; 0x13c <__bad_interrupt>

0000007c <PL_tab1>:
      7c:	4c 55 4b 41 53 5a 5f 55 53 5a 4b 4f 00              LUKASZ_USZKO.

00000089 <PL_tab2>:
      89:	54 41 4b 20 20 20 20 20 20 20 20 20 20 4e 49 45     TAK          NIE
	...

0000009a <PL_cont>:
      9a:	4b 6f 6e 74 79 6e 75 6f 77 61 63 3f 00              Kontynuowac?.

000000a7 <PL_save>:
      a7:	5a 61 70 69 73 61 63 20 7a 6d 69 61 6e 79 3f 00     Zapisac zmiany?.

000000b7 <PL_error>:
      b7:	45 52 52 4f 52 21 00                                ERROR!.

000000be <PL_powitanie>:
      be:	55 4e 49 57 45 52 53 41 4c 4e 59 20 53 54 45 52     UNIWERSALNY STER
      ce:	4f 57 4e 49 4b 00                                   OWNIK.

000000d4 <PL_oprog>:
      d4:	4f 50 52 4f 47 52 41 4d 4f 57 41 4e 49 45 3a 00     OPROGRAMOWANIE:.

000000e4 <PL_next_alarm>:
      e4:	75 73 74 2e 20 6e 61 73 74 2e 20 61 6c 61 72 6d     ust. nast. alarm
	...

000000f5 <PL_wersja>:
      f5:	77 65 72 73 6a 61 20 31 2e 30 31 00 00              wersja 1.01..

00000102 <__ctors_end>:
     102:	11 24       	eor	r1, r1
     104:	1f be       	out	0x3f, r1	; 63
     106:	cf ef       	ldi	r28, 0xFF	; 255
     108:	d0 e1       	ldi	r29, 0x10	; 16
     10a:	de bf       	out	0x3e, r29	; 62
     10c:	cd bf       	out	0x3d, r28	; 61

0000010e <__do_copy_data>:
     10e:	13 e0       	ldi	r17, 0x03	; 3
     110:	a0 e0       	ldi	r26, 0x00	; 0
     112:	b1 e0       	ldi	r27, 0x01	; 1
     114:	e6 ef       	ldi	r30, 0xF6	; 246
     116:	fd e2       	ldi	r31, 0x2D	; 45
     118:	02 c0       	rjmp	.+4      	; 0x11e <.do_copy_data_start>

0000011a <.do_copy_data_loop>:
     11a:	05 90       	lpm	r0, Z+
     11c:	0d 92       	st	X+, r0

0000011e <.do_copy_data_start>:
     11e:	aa 36       	cpi	r26, 0x6A	; 106
     120:	b1 07       	cpc	r27, r17
     122:	d9 f7       	brne	.-10     	; 0x11a <.do_copy_data_loop>

00000124 <__do_clear_bss>:
     124:	14 e0       	ldi	r17, 0x04	; 4
     126:	aa e6       	ldi	r26, 0x6A	; 106
     128:	b3 e0       	ldi	r27, 0x03	; 3
     12a:	01 c0       	rjmp	.+2      	; 0x12e <.do_clear_bss_start>

0000012c <.do_clear_bss_loop>:
     12c:	1d 92       	st	X+, r1

0000012e <.do_clear_bss_start>:
     12e:	a7 3f       	cpi	r26, 0xF7	; 247
     130:	b1 07       	cpc	r27, r17
     132:	e1 f7       	brne	.-8      	; 0x12c <.do_clear_bss_loop>
     134:	0e 94 cf 08 	call	0x119e	; 0x119e <main>
     138:	0c 94 f9 16 	jmp	0x2df2	; 0x2df2 <_exit>

0000013c <__bad_interrupt>:
     13c:	0c 94 00 00 	jmp	0	; 0x0 <__vectors>

00000140 <USART_Init>:
     140:	90 93 c5 00 	sts	0x00C5, r25
     144:	80 93 c4 00 	sts	0x00C4, r24
     148:	e1 ec       	ldi	r30, 0xC1	; 193
     14a:	f0 e0       	ldi	r31, 0x00	; 0
     14c:	88 e1       	ldi	r24, 0x18	; 24
     14e:	80 83       	st	Z, r24
     150:	52 9a       	sbi	0x0a, 2	; 10
     152:	5a 9a       	sbi	0x0b, 2	; 11
     154:	80 81       	ld	r24, Z
     156:	88 6d       	ori	r24, 0xD8	; 216
     158:	80 83       	st	Z, r24
     15a:	08 95       	ret

0000015c <USART_TXC_vect>:
     15c:	1f 92       	push	r1
     15e:	0f 92       	push	r0
     160:	0f b6       	in	r0, 0x3f	; 63
     162:	0f 92       	push	r0
     164:	11 24       	eor	r1, r1
     166:	5a 98       	cbi	0x0b, 2	; 11
     168:	0f 90       	pop	r0
     16a:	0f be       	out	0x3f, r0	; 63
     16c:	0f 90       	pop	r0
     16e:	1f 90       	pop	r1
     170:	18 95       	reti

00000172 <uart_putc>:
     172:	28 2f       	mov	r18, r24
     174:	90 91 73 03 	lds	r25, 0x0373
     178:	9f 5f       	subi	r25, 0xFF	; 255
     17a:	9f 70       	andi	r25, 0x0F	; 15
     17c:	80 91 74 03 	lds	r24, 0x0374
     180:	98 17       	cp	r25, r24
     182:	e1 f3       	breq	.-8      	; 0x17c <uart_putc+0xa>
     184:	e9 2f       	mov	r30, r25
     186:	f0 e0       	ldi	r31, 0x00	; 0
     188:	eb 58       	subi	r30, 0x8B	; 139
     18a:	fc 4f       	sbci	r31, 0xFC	; 252
     18c:	20 83       	st	Z, r18
     18e:	90 93 73 03 	sts	0x0373, r25
     192:	80 91 c1 00 	lds	r24, 0x00C1
     196:	80 62       	ori	r24, 0x20	; 32
     198:	80 93 c1 00 	sts	0x00C1, r24
     19c:	08 95       	ret

0000019e <uart_puts>:
     19e:	cf 93       	push	r28
     1a0:	df 93       	push	r29
     1a2:	ec 01       	movw	r28, r24
     1a4:	02 c0       	rjmp	.+4      	; 0x1aa <uart_puts+0xc>
     1a6:	0e 94 b9 00 	call	0x172	; 0x172 <uart_putc>
     1aa:	89 91       	ld	r24, Y+
     1ac:	88 23       	and	r24, r24
     1ae:	d9 f7       	brne	.-10     	; 0x1a6 <uart_puts+0x8>
     1b0:	df 91       	pop	r29
     1b2:	cf 91       	pop	r28
     1b4:	08 95       	ret

000001b6 <USART_UDRE_vect>:
     1b6:	1f 92       	push	r1
     1b8:	0f 92       	push	r0
     1ba:	0f b6       	in	r0, 0x3f	; 63
     1bc:	0f 92       	push	r0
     1be:	11 24       	eor	r1, r1
     1c0:	8f 93       	push	r24
     1c2:	9f 93       	push	r25
     1c4:	90 91 73 03 	lds	r25, 0x0373
     1c8:	80 91 74 03 	lds	r24, 0x0374
     1cc:	98 17       	cp	r25, r24
     1ce:	39 f0       	breq	.+14     	; 0x1de <USART_UDRE_vect+0x28>
     1d0:	80 91 74 03 	lds	r24, 0x0374
     1d4:	8f 5f       	subi	r24, 0xFF	; 255
     1d6:	8f 70       	andi	r24, 0x0F	; 15
     1d8:	80 93 74 03 	sts	0x0374, r24
     1dc:	05 c0       	rjmp	.+10     	; 0x1e8 <USART_UDRE_vect+0x32>
     1de:	80 91 c1 00 	lds	r24, 0x00C1
     1e2:	8f 7d       	andi	r24, 0xDF	; 223
     1e4:	80 93 c1 00 	sts	0x00C1, r24
     1e8:	9f 91       	pop	r25
     1ea:	8f 91       	pop	r24
     1ec:	0f 90       	pop	r0
     1ee:	0f be       	out	0x3f, r0	; 63
     1f0:	0f 90       	pop	r0
     1f2:	1f 90       	pop	r1
     1f4:	18 95       	reti

000001f6 <uart_getc>:
     1f6:	90 91 85 03 	lds	r25, 0x0385
     1fa:	80 91 86 03 	lds	r24, 0x0386
     1fe:	98 17       	cp	r25, r24
     200:	11 f4       	brne	.+4      	; 0x206 <uart_getc+0x10>
     202:	80 e0       	ldi	r24, 0x00	; 0
     204:	08 95       	ret
     206:	80 91 86 03 	lds	r24, 0x0386
     20a:	8f 5f       	subi	r24, 0xFF	; 255
     20c:	8f 71       	andi	r24, 0x1F	; 31
     20e:	80 93 86 03 	sts	0x0386, r24
     212:	e0 91 86 03 	lds	r30, 0x0386
     216:	f0 e0       	ldi	r31, 0x00	; 0
     218:	e9 57       	subi	r30, 0x79	; 121
     21a:	fc 4f       	sbci	r31, 0xFC	; 252
     21c:	80 81       	ld	r24, Z
     21e:	08 95       	ret

00000220 <USART_RXC_vect>:
     220:	1f 92       	push	r1
     222:	0f 92       	push	r0
     224:	0f b6       	in	r0, 0x3f	; 63
     226:	0f 92       	push	r0
     228:	11 24       	eor	r1, r1
     22a:	8f 93       	push	r24
     22c:	ef 93       	push	r30
     22e:	ff 93       	push	r31
     230:	e0 91 85 03 	lds	r30, 0x0385
     234:	ef 5f       	subi	r30, 0xFF	; 255
     236:	ef 71       	andi	r30, 0x1F	; 31
     238:	80 91 86 03 	lds	r24, 0x0386
     23c:	e8 17       	cp	r30, r24
     23e:	31 f0       	breq	.+12     	; 0x24c <USART_RXC_vect+0x2c>
     240:	e0 93 85 03 	sts	0x0385, r30
     244:	f0 e0       	ldi	r31, 0x00	; 0
     246:	e9 57       	subi	r30, 0x79	; 121
     248:	fc 4f       	sbci	r31, 0xFC	; 252
     24a:	10 82       	st	Z, r1
     24c:	ff 91       	pop	r31
     24e:	ef 91       	pop	r30
     250:	8f 91       	pop	r24
     252:	0f 90       	pop	r0
     254:	0f be       	out	0x3f, r0	; 63
     256:	0f 90       	pop	r0
     258:	1f 90       	pop	r1
     25a:	18 95       	reti

0000025c <uart_putint>:
     25c:	0f 93       	push	r16
     25e:	1f 93       	push	r17
     260:	df 93       	push	r29
     262:	cf 93       	push	r28
     264:	cd b7       	in	r28, 0x3d	; 61
     266:	de b7       	in	r29, 0x3e	; 62
     268:	61 97       	sbiw	r28, 0x11	; 17
     26a:	0f b6       	in	r0, 0x3f	; 63
     26c:	f8 94       	cli
     26e:	de bf       	out	0x3e, r29	; 62
     270:	0f be       	out	0x3f, r0	; 63
     272:	cd bf       	out	0x3d, r28	; 61
     274:	ab 01       	movw	r20, r22
     276:	8e 01       	movw	r16, r28
     278:	0f 5f       	subi	r16, 0xFF	; 255
     27a:	1f 4f       	sbci	r17, 0xFF	; 255
     27c:	b8 01       	movw	r22, r16
     27e:	0e 94 c0 16 	call	0x2d80	; 0x2d80 <itoa>
     282:	c8 01       	movw	r24, r16
     284:	0e 94 cf 00 	call	0x19e	; 0x19e <uart_puts>
     288:	61 96       	adiw	r28, 0x11	; 17
     28a:	0f b6       	in	r0, 0x3f	; 63
     28c:	f8 94       	cli
     28e:	de bf       	out	0x3e, r29	; 62
     290:	0f be       	out	0x3f, r0	; 63
     292:	cd bf       	out	0x3d, r28	; 61
     294:	cf 91       	pop	r28
     296:	df 91       	pop	r29
     298:	1f 91       	pop	r17
     29a:	0f 91       	pop	r16
     29c:	08 95       	ret

0000029e <__vector_24>:
     29e:	1f 92       	push	r1
     2a0:	0f 92       	push	r0
     2a2:	0f b6       	in	r0, 0x3f	; 63
     2a4:	0f 92       	push	r0
     2a6:	11 24       	eor	r1, r1
     2a8:	8f 93       	push	r24
     2aa:	9f 93       	push	r25
     2ac:	80 91 78 00 	lds	r24, 0x0078
     2b0:	90 91 79 00 	lds	r25, 0x0079
     2b4:	90 93 b0 03 	sts	0x03B0, r25
     2b8:	80 93 af 03 	sts	0x03AF, r24
     2bc:	9f 91       	pop	r25
     2be:	8f 91       	pop	r24
     2c0:	0f 90       	pop	r0
     2c2:	0f be       	out	0x3f, r0	; 63
     2c4:	0f 90       	pop	r0
     2c6:	1f 90       	pop	r1
     2c8:	18 95       	reti

000002ca <show_set_alarm>:
     2ca:	ef 92       	push	r14
     2cc:	ff 92       	push	r15
     2ce:	0f 93       	push	r16
     2d0:	1f 93       	push	r17
     2d2:	cf 93       	push	r28
     2d4:	df 93       	push	r29
     2d6:	e6 2e       	mov	r14, r22
     2d8:	82 30       	cpi	r24, 0x02	; 2
     2da:	09 f4       	brne	.+2      	; 0x2de <show_set_alarm+0x14>
     2dc:	4a c0       	rjmp	.+148    	; 0x372 <show_set_alarm+0xa8>
     2de:	83 30       	cpi	r24, 0x03	; 3
     2e0:	09 f4       	brne	.+2      	; 0x2e4 <show_set_alarm+0x1a>
     2e2:	8d c0       	rjmp	.+282    	; 0x3fe <show_set_alarm+0x134>
     2e4:	81 30       	cpi	r24, 0x01	; 1
     2e6:	09 f0       	breq	.+2      	; 0x2ea <show_set_alarm+0x20>
     2e8:	e4 c0       	rjmp	.+456    	; 0x4b2 <show_set_alarm+0x1e8>
     2ea:	80 e0       	ldi	r24, 0x00	; 0
     2ec:	60 e0       	ldi	r22, 0x00	; 0
     2ee:	0e 94 f0 05 	call	0xbe0	; 0xbe0 <lcd_locate>
     2f2:	80 e0       	ldi	r24, 0x00	; 0
     2f4:	91 e0       	ldi	r25, 0x01	; 1
     2f6:	0e 94 90 05 	call	0xb20	; 0xb20 <lcd_put_str>
     2fa:	0e 2d       	mov	r16, r14
     2fc:	10 e0       	ldi	r17, 0x00	; 0
     2fe:	c8 01       	movw	r24, r16
     300:	0e 94 e9 07 	call	0xfd2	; 0xfd2 <lcd_int>
     304:	81 e0       	ldi	r24, 0x01	; 1
     306:	64 e0       	ldi	r22, 0x04	; 4
     308:	0e 94 f0 05 	call	0xbe0	; 0xbe0 <lcd_locate>
     30c:	01 50       	subi	r16, 0x01	; 1
     30e:	10 40       	sbci	r17, 0x00	; 0
     310:	e8 01       	movw	r28, r16
     312:	cf 54       	subi	r28, 0x4F	; 79
     314:	dc 4f       	sbci	r29, 0xFC	; 252
     316:	88 81       	ld	r24, Y
     318:	8a 30       	cpi	r24, 0x0A	; 10
     31a:	28 f4       	brcc	.+10     	; 0x326 <show_set_alarm+0x5c>
     31c:	80 e1       	ldi	r24, 0x10	; 16
     31e:	91 e0       	ldi	r25, 0x01	; 1
     320:	0e 94 90 05 	call	0xb20	; 0xb20 <lcd_put_str>
     324:	88 81       	ld	r24, Y
     326:	90 e0       	ldi	r25, 0x00	; 0
     328:	0e 94 e9 07 	call	0xfd2	; 0xfd2 <lcd_int>
     32c:	82 e1       	ldi	r24, 0x12	; 18
     32e:	91 e0       	ldi	r25, 0x01	; 1
     330:	0e 94 90 05 	call	0xb20	; 0xb20 <lcd_put_str>
     334:	e8 01       	movw	r28, r16
     336:	cf 54       	subi	r28, 0x4F	; 79
     338:	dc 4f       	sbci	r29, 0xFC	; 252
     33a:	8a 85       	ldd	r24, Y+10	; 0x0a
     33c:	8a 30       	cpi	r24, 0x0A	; 10
     33e:	28 f4       	brcc	.+10     	; 0x34a <show_set_alarm+0x80>
     340:	80 e1       	ldi	r24, 0x10	; 16
     342:	91 e0       	ldi	r25, 0x01	; 1
     344:	0e 94 90 05 	call	0xb20	; 0xb20 <lcd_put_str>
     348:	8a 85       	ldd	r24, Y+10	; 0x0a
     34a:	90 e0       	ldi	r25, 0x00	; 0
     34c:	0e 94 e9 07 	call	0xfd2	; 0xfd2 <lcd_int>
     350:	82 e1       	ldi	r24, 0x12	; 18
     352:	91 e0       	ldi	r25, 0x01	; 1
     354:	0e 94 90 05 	call	0xb20	; 0xb20 <lcd_put_str>
     358:	e8 01       	movw	r28, r16
     35a:	cf 54       	subi	r28, 0x4F	; 79
     35c:	dc 4f       	sbci	r29, 0xFC	; 252
     35e:	8c 89       	ldd	r24, Y+20	; 0x14
     360:	8a 30       	cpi	r24, 0x0A	; 10
     362:	08 f0       	brcs	.+2      	; 0x366 <show_set_alarm+0x9c>
     364:	4a c0       	rjmp	.+148    	; 0x3fa <show_set_alarm+0x130>
     366:	80 e1       	ldi	r24, 0x10	; 16
     368:	91 e0       	ldi	r25, 0x01	; 1
     36a:	0e 94 90 05 	call	0xb20	; 0xb20 <lcd_put_str>
     36e:	8c 89       	ldd	r24, Y+20	; 0x14
     370:	44 c0       	rjmp	.+136    	; 0x3fa <show_set_alarm+0x130>
     372:	80 e0       	ldi	r24, 0x00	; 0
     374:	60 e0       	ldi	r22, 0x00	; 0
     376:	0e 94 f0 05 	call	0xbe0	; 0xbe0 <lcd_locate>
     37a:	84 e1       	ldi	r24, 0x14	; 20
     37c:	91 e0       	ldi	r25, 0x01	; 1
     37e:	0e 94 90 05 	call	0xb20	; 0xb20 <lcd_put_str>
     382:	0e 2d       	mov	r16, r14
     384:	10 e0       	ldi	r17, 0x00	; 0
     386:	c8 01       	movw	r24, r16
     388:	0e 94 e9 07 	call	0xfd2	; 0xfd2 <lcd_int>
     38c:	84 e2       	ldi	r24, 0x24	; 36
     38e:	91 e0       	ldi	r25, 0x01	; 1
     390:	0e 94 90 05 	call	0xb20	; 0xb20 <lcd_put_str>
     394:	01 50       	subi	r16, 0x01	; 1
     396:	10 40       	sbci	r17, 0x00	; 0
     398:	e0 91 cf 03 	lds	r30, 0x03CF
     39c:	f0 91 d0 03 	lds	r31, 0x03D0
     3a0:	e0 0f       	add	r30, r16
     3a2:	f1 1f       	adc	r31, r17
     3a4:	86 8d       	ldd	r24, Z+30	; 0x1e
     3a6:	90 e0       	ldi	r25, 0x00	; 0
     3a8:	0e 94 e9 07 	call	0xfd2	; 0xfd2 <lcd_int>
     3ac:	81 e0       	ldi	r24, 0x01	; 1
     3ae:	63 e0       	ldi	r22, 0x03	; 3
     3b0:	0e 94 f0 05 	call	0xbe0	; 0xbe0 <lcd_locate>
     3b4:	e0 91 cf 03 	lds	r30, 0x03CF
     3b8:	f0 91 d0 03 	lds	r31, 0x03D0
     3bc:	e0 0f       	add	r30, r16
     3be:	f1 1f       	adc	r31, r17
     3c0:	80 81       	ld	r24, Z
     3c2:	90 e0       	ldi	r25, 0x00	; 0
     3c4:	0e 94 e9 07 	call	0xfd2	; 0xfd2 <lcd_int>
     3c8:	86 e2       	ldi	r24, 0x26	; 38
     3ca:	91 e0       	ldi	r25, 0x01	; 1
     3cc:	0e 94 90 05 	call	0xb20	; 0xb20 <lcd_put_str>
     3d0:	e0 91 cf 03 	lds	r30, 0x03CF
     3d4:	f0 91 d0 03 	lds	r31, 0x03D0
     3d8:	e0 0f       	add	r30, r16
     3da:	f1 1f       	adc	r31, r17
     3dc:	82 85       	ldd	r24, Z+10	; 0x0a
     3de:	90 e0       	ldi	r25, 0x00	; 0
     3e0:	0e 94 e9 07 	call	0xfd2	; 0xfd2 <lcd_int>
     3e4:	86 e2       	ldi	r24, 0x26	; 38
     3e6:	91 e0       	ldi	r25, 0x01	; 1
     3e8:	0e 94 90 05 	call	0xb20	; 0xb20 <lcd_put_str>
     3ec:	e0 91 cf 03 	lds	r30, 0x03CF
     3f0:	f0 91 d0 03 	lds	r31, 0x03D0
     3f4:	e0 0f       	add	r30, r16
     3f6:	f1 1f       	adc	r31, r17
     3f8:	84 89       	ldd	r24, Z+20	; 0x14
     3fa:	90 e0       	ldi	r25, 0x00	; 0
     3fc:	58 c0       	rjmp	.+176    	; 0x4ae <show_set_alarm+0x1e4>
     3fe:	ff 24       	eor	r15, r15
     400:	87 01       	movw	r16, r14
     402:	01 50       	subi	r16, 0x01	; 1
     404:	10 40       	sbci	r17, 0x00	; 0
     406:	e0 91 5d 04 	lds	r30, 0x045D
     40a:	f0 91 5e 04 	lds	r31, 0x045E
     40e:	e0 0f       	add	r30, r16
     410:	f1 1f       	adc	r31, r17
     412:	80 81       	ld	r24, Z
     414:	90 e0       	ldi	r25, 0x00	; 0
     416:	0e 94 e9 07 	call	0xfd2	; 0xfd2 <lcd_int>
     41a:	86 e2       	ldi	r24, 0x26	; 38
     41c:	91 e0       	ldi	r25, 0x01	; 1
     41e:	0e 94 90 05 	call	0xb20	; 0xb20 <lcd_put_str>
     422:	e0 91 5d 04 	lds	r30, 0x045D
     426:	f0 91 5e 04 	lds	r31, 0x045E
     42a:	e0 0f       	add	r30, r16
     42c:	f1 1f       	adc	r31, r17
     42e:	82 85       	ldd	r24, Z+10	; 0x0a
     430:	90 e0       	ldi	r25, 0x00	; 0
     432:	0e 94 e9 07 	call	0xfd2	; 0xfd2 <lcd_int>
     436:	86 e2       	ldi	r24, 0x26	; 38
     438:	91 e0       	ldi	r25, 0x01	; 1
     43a:	0e 94 90 05 	call	0xb20	; 0xb20 <lcd_put_str>
     43e:	e0 91 5d 04 	lds	r30, 0x045D
     442:	f0 91 5e 04 	lds	r31, 0x045E
     446:	e0 0f       	add	r30, r16
     448:	f1 1f       	adc	r31, r17
     44a:	84 89       	ldd	r24, Z+20	; 0x14
     44c:	90 e0       	ldi	r25, 0x00	; 0
     44e:	0e 94 e9 07 	call	0xfd2	; 0xfd2 <lcd_int>
     452:	81 e0       	ldi	r24, 0x01	; 1
     454:	63 e0       	ldi	r22, 0x03	; 3
     456:	0e 94 f0 05 	call	0xbe0	; 0xbe0 <lcd_locate>
     45a:	e0 91 5d 04 	lds	r30, 0x045D
     45e:	f0 91 5e 04 	lds	r31, 0x045E
     462:	e0 0f       	add	r30, r16
     464:	f1 1f       	adc	r31, r17
     466:	86 8d       	ldd	r24, Z+30	; 0x1e
     468:	90 e0       	ldi	r25, 0x00	; 0
     46a:	0e 94 e9 07 	call	0xfd2	; 0xfd2 <lcd_int>
     46e:	86 e2       	ldi	r24, 0x26	; 38
     470:	91 e0       	ldi	r25, 0x01	; 1
     472:	0e 94 90 05 	call	0xb20	; 0xb20 <lcd_put_str>
     476:	e0 91 5d 04 	lds	r30, 0x045D
     47a:	f0 91 5e 04 	lds	r31, 0x045E
     47e:	e0 0f       	add	r30, r16
     480:	f1 1f       	adc	r31, r17
     482:	80 a5       	ldd	r24, Z+40	; 0x28
     484:	90 e0       	ldi	r25, 0x00	; 0
     486:	0e 94 e9 07 	call	0xfd2	; 0xfd2 <lcd_int>
     48a:	86 e2       	ldi	r24, 0x26	; 38
     48c:	91 e0       	ldi	r25, 0x01	; 1
     48e:	0e 94 90 05 	call	0xb20	; 0xb20 <lcd_put_str>
     492:	e0 91 5d 04 	lds	r30, 0x045D
     496:	f0 91 5e 04 	lds	r31, 0x045E
     49a:	88 e1       	ldi	r24, 0x18	; 24
     49c:	90 e0       	ldi	r25, 0x00	; 0
     49e:	e8 0e       	add	r14, r24
     4a0:	f9 1e       	adc	r15, r25
     4a2:	ee 0c       	add	r14, r14
     4a4:	ff 1c       	adc	r15, r15
     4a6:	ee 0d       	add	r30, r14
     4a8:	ff 1d       	adc	r31, r15
     4aa:	80 81       	ld	r24, Z
     4ac:	91 81       	ldd	r25, Z+1	; 0x01
     4ae:	0e 94 e9 07 	call	0xfd2	; 0xfd2 <lcd_int>
     4b2:	df 91       	pop	r29
     4b4:	cf 91       	pop	r28
     4b6:	1f 91       	pop	r17
     4b8:	0f 91       	pop	r16
     4ba:	ff 90       	pop	r15
     4bc:	ef 90       	pop	r14
     4be:	08 95       	ret

000004c0 <set_alarm>:
     4c0:	ff 92       	push	r15
     4c2:	0f 93       	push	r16
     4c4:	1f 93       	push	r17
     4c6:	f8 2e       	mov	r15, r24
     4c8:	e0 91 28 01 	lds	r30, 0x0128
     4cc:	f0 e0       	ldi	r31, 0x00	; 0
     4ce:	e0 55       	subi	r30, 0x50	; 80
     4d0:	fc 4f       	sbci	r31, 0xFC	; 252
     4d2:	10 82       	st	Z, r1
     4d4:	12 86       	std	Z+10, r1	; 0x0a
     4d6:	14 8a       	std	Z+20, r1	; 0x14
     4d8:	10 e0       	ldi	r17, 0x00	; 0
     4da:	00 e0       	ldi	r16, 0x00	; 0
     4dc:	19 c0       	rjmp	.+50     	; 0x510 <set_alarm+0x50>
     4de:	80 e0       	ldi	r24, 0x00	; 0
     4e0:	62 e0       	ldi	r22, 0x02	; 2
     4e2:	0e 94 f0 05 	call	0xbe0	; 0xbe0 <lcd_locate>
     4e6:	8a e9       	ldi	r24, 0x9A	; 154
     4e8:	90 e0       	ldi	r25, 0x00	; 0
     4ea:	0e 94 a2 05 	call	0xb44	; 0xb44 <lcd_str_P>
     4ee:	88 e0       	ldi	r24, 0x08	; 8
     4f0:	0e 94 24 04 	call	0x848	; 0x848 <Read_Input_Switch>
     4f4:	88 23       	and	r24, r24
     4f6:	21 f0       	breq	.+8      	; 0x500 <set_alarm+0x40>
     4f8:	0e 94 f8 05 	call	0xbf0	; 0xbf0 <lcd_cls>
     4fc:	01 e0       	ldi	r16, 0x01	; 1
     4fe:	0a c0       	rjmp	.+20     	; 0x514 <set_alarm+0x54>
     500:	80 e1       	ldi	r24, 0x10	; 16
     502:	0e 94 24 04 	call	0x848	; 0x848 <Read_Input_Switch>
     506:	88 23       	and	r24, r24
     508:	51 f3       	breq	.-44     	; 0x4de <set_alarm+0x1e>
     50a:	0e 94 f8 05 	call	0xbf0	; 0xbf0 <lcd_cls>
     50e:	e2 c0       	rjmp	.+452    	; 0x6d4 <set_alarm+0x214>
     510:	00 23       	and	r16, r16
     512:	29 f3       	breq	.-54     	; 0x4de <set_alarm+0x1e>
     514:	81 e0       	ldi	r24, 0x01	; 1
     516:	f8 16       	cp	r15, r24
     518:	d9 f7       	brne	.-10     	; 0x510 <set_alarm+0x50>
     51a:	a3 c0       	rjmp	.+326    	; 0x662 <set_alarm+0x1a2>
     51c:	81 e0       	ldi	r24, 0x01	; 1
     51e:	60 91 28 01 	lds	r22, 0x0128
     522:	0e 94 65 01 	call	0x2ca	; 0x2ca <show_set_alarm>
     526:	11 30       	cpi	r17, 0x01	; 1
     528:	89 f1       	breq	.+98     	; 0x58c <set_alarm+0xcc>
     52a:	11 30       	cpi	r17, 0x01	; 1
     52c:	20 f0       	brcs	.+8      	; 0x536 <set_alarm+0x76>
     52e:	12 30       	cpi	r17, 0x02	; 2
     530:	09 f0       	breq	.+2      	; 0x534 <set_alarm+0x74>
     532:	97 c0       	rjmp	.+302    	; 0x662 <set_alarm+0x1a2>
     534:	5e c0       	rjmp	.+188    	; 0x5f2 <set_alarm+0x132>
     536:	80 e4       	ldi	r24, 0x40	; 64
     538:	0e 94 24 04 	call	0x848	; 0x848 <Read_Input_Switch>
     53c:	88 23       	and	r24, r24
     53e:	69 f0       	breq	.+26     	; 0x55a <set_alarm+0x9a>
     540:	60 91 28 01 	lds	r22, 0x0128
     544:	e6 2f       	mov	r30, r22
     546:	f0 e0       	ldi	r31, 0x00	; 0
     548:	e0 55       	subi	r30, 0x50	; 80
     54a:	fc 4f       	sbci	r31, 0xFC	; 252
     54c:	80 81       	ld	r24, Z
     54e:	8f 5f       	subi	r24, 0xFF	; 255
     550:	80 83       	st	Z, r24
     552:	88 31       	cpi	r24, 0x18	; 24
     554:	80 f0       	brcs	.+32     	; 0x576 <set_alarm+0xb6>
     556:	10 82       	st	Z, r1
     558:	0e c0       	rjmp	.+28     	; 0x576 <set_alarm+0xb6>
     55a:	80 e2       	ldi	r24, 0x20	; 32
     55c:	0e 94 24 04 	call	0x848	; 0x848 <Read_Input_Switch>
     560:	88 23       	and	r24, r24
     562:	61 f0       	breq	.+24     	; 0x57c <set_alarm+0xbc>
     564:	60 91 28 01 	lds	r22, 0x0128
     568:	e6 2f       	mov	r30, r22
     56a:	f0 e0       	ldi	r31, 0x00	; 0
     56c:	e0 55       	subi	r30, 0x50	; 80
     56e:	fc 4f       	sbci	r31, 0xFC	; 252
     570:	80 81       	ld	r24, Z
     572:	81 50       	subi	r24, 0x01	; 1
     574:	80 83       	st	Z, r24
     576:	81 e0       	ldi	r24, 0x01	; 1
     578:	0e 94 65 01 	call	0x2ca	; 0x2ca <show_set_alarm>
     57c:	80 e1       	ldi	r24, 0x10	; 16
     57e:	0e 94 24 04 	call	0x848	; 0x848 <Read_Input_Switch>
     582:	88 23       	and	r24, r24
     584:	09 f0       	breq	.+2      	; 0x588 <set_alarm+0xc8>
     586:	5d c0       	rjmp	.+186    	; 0x642 <set_alarm+0x182>
     588:	88 e0       	ldi	r24, 0x08	; 8
     58a:	29 c0       	rjmp	.+82     	; 0x5de <set_alarm+0x11e>
     58c:	80 e4       	ldi	r24, 0x40	; 64
     58e:	0e 94 24 04 	call	0x848	; 0x848 <Read_Input_Switch>
     592:	88 23       	and	r24, r24
     594:	69 f0       	breq	.+26     	; 0x5b0 <set_alarm+0xf0>
     596:	60 91 28 01 	lds	r22, 0x0128
     59a:	e6 2f       	mov	r30, r22
     59c:	f0 e0       	ldi	r31, 0x00	; 0
     59e:	e0 55       	subi	r30, 0x50	; 80
     5a0:	fc 4f       	sbci	r31, 0xFC	; 252
     5a2:	82 85       	ldd	r24, Z+10	; 0x0a
     5a4:	8f 5f       	subi	r24, 0xFF	; 255
     5a6:	82 87       	std	Z+10, r24	; 0x0a
     5a8:	8c 33       	cpi	r24, 0x3C	; 60
     5aa:	80 f0       	brcs	.+32     	; 0x5cc <set_alarm+0x10c>
     5ac:	12 86       	std	Z+10, r1	; 0x0a
     5ae:	0e c0       	rjmp	.+28     	; 0x5cc <set_alarm+0x10c>
     5b0:	80 e2       	ldi	r24, 0x20	; 32
     5b2:	0e 94 24 04 	call	0x848	; 0x848 <Read_Input_Switch>
     5b6:	88 23       	and	r24, r24
     5b8:	61 f0       	breq	.+24     	; 0x5d2 <set_alarm+0x112>
     5ba:	60 91 28 01 	lds	r22, 0x0128
     5be:	e6 2f       	mov	r30, r22
     5c0:	f0 e0       	ldi	r31, 0x00	; 0
     5c2:	e0 55       	subi	r30, 0x50	; 80
     5c4:	fc 4f       	sbci	r31, 0xFC	; 252
     5c6:	82 85       	ldd	r24, Z+10	; 0x0a
     5c8:	81 50       	subi	r24, 0x01	; 1
     5ca:	82 87       	std	Z+10, r24	; 0x0a
     5cc:	81 e0       	ldi	r24, 0x01	; 1
     5ce:	0e 94 65 01 	call	0x2ca	; 0x2ca <show_set_alarm>
     5d2:	88 e0       	ldi	r24, 0x08	; 8
     5d4:	0e 94 24 04 	call	0x848	; 0x848 <Read_Input_Switch>
     5d8:	88 23       	and	r24, r24
     5da:	f1 f5       	brne	.+124    	; 0x658 <set_alarm+0x198>
     5dc:	80 e1       	ldi	r24, 0x10	; 16
     5de:	0e 94 24 04 	call	0x848	; 0x848 <Read_Input_Switch>
     5e2:	88 23       	and	r24, r24
     5e4:	f1 f1       	breq	.+124    	; 0x662 <set_alarm+0x1a2>
     5e6:	82 e0       	ldi	r24, 0x02	; 2
     5e8:	90 e0       	ldi	r25, 0x00	; 0
     5ea:	0e 94 d1 04 	call	0x9a2	; 0x9a2 <Delay_100ms>
     5ee:	12 e0       	ldi	r17, 0x02	; 2
     5f0:	38 c0       	rjmp	.+112    	; 0x662 <set_alarm+0x1a2>
     5f2:	80 e4       	ldi	r24, 0x40	; 64
     5f4:	0e 94 24 04 	call	0x848	; 0x848 <Read_Input_Switch>
     5f8:	88 23       	and	r24, r24
     5fa:	69 f0       	breq	.+26     	; 0x616 <set_alarm+0x156>
     5fc:	60 91 28 01 	lds	r22, 0x0128
     600:	e6 2f       	mov	r30, r22
     602:	f0 e0       	ldi	r31, 0x00	; 0
     604:	e0 55       	subi	r30, 0x50	; 80
     606:	fc 4f       	sbci	r31, 0xFC	; 252
     608:	84 89       	ldd	r24, Z+20	; 0x14
     60a:	8f 5f       	subi	r24, 0xFF	; 255
     60c:	84 8b       	std	Z+20, r24	; 0x14
     60e:	8c 33       	cpi	r24, 0x3C	; 60
     610:	80 f0       	brcs	.+32     	; 0x632 <set_alarm+0x172>
     612:	14 8a       	std	Z+20, r1	; 0x14
     614:	0e c0       	rjmp	.+28     	; 0x632 <set_alarm+0x172>
     616:	80 e2       	ldi	r24, 0x20	; 32
     618:	0e 94 24 04 	call	0x848	; 0x848 <Read_Input_Switch>
     61c:	88 23       	and	r24, r24
     61e:	61 f0       	breq	.+24     	; 0x638 <set_alarm+0x178>
     620:	60 91 28 01 	lds	r22, 0x0128
     624:	e6 2f       	mov	r30, r22
     626:	f0 e0       	ldi	r31, 0x00	; 0
     628:	e0 55       	subi	r30, 0x50	; 80
     62a:	fc 4f       	sbci	r31, 0xFC	; 252
     62c:	84 89       	ldd	r24, Z+20	; 0x14
     62e:	81 50       	subi	r24, 0x01	; 1
     630:	84 8b       	std	Z+20, r24	; 0x14
     632:	81 e0       	ldi	r24, 0x01	; 1
     634:	0e 94 65 01 	call	0x2ca	; 0x2ca <show_set_alarm>
     638:	88 e0       	ldi	r24, 0x08	; 8
     63a:	0e 94 24 04 	call	0x848	; 0x848 <Read_Input_Switch>
     63e:	88 23       	and	r24, r24
     640:	31 f0       	breq	.+12     	; 0x64e <set_alarm+0x18e>
     642:	82 e0       	ldi	r24, 0x02	; 2
     644:	90 e0       	ldi	r25, 0x00	; 0
     646:	0e 94 d1 04 	call	0x9a2	; 0x9a2 <Delay_100ms>
     64a:	11 e0       	ldi	r17, 0x01	; 1
     64c:	0a c0       	rjmp	.+20     	; 0x662 <set_alarm+0x1a2>
     64e:	80 e1       	ldi	r24, 0x10	; 16
     650:	0e 94 24 04 	call	0x848	; 0x848 <Read_Input_Switch>
     654:	88 23       	and	r24, r24
     656:	29 f0       	breq	.+10     	; 0x662 <set_alarm+0x1a2>
     658:	82 e0       	ldi	r24, 0x02	; 2
     65a:	90 e0       	ldi	r25, 0x00	; 0
     65c:	0e 94 d1 04 	call	0x9a2	; 0x9a2 <Delay_100ms>
     660:	10 e0       	ldi	r17, 0x00	; 0
     662:	80 e8       	ldi	r24, 0x80	; 128
     664:	0e 94 24 04 	call	0x848	; 0x848 <Read_Input_Switch>
     668:	88 23       	and	r24, r24
     66a:	09 f4       	brne	.+2      	; 0x66e <set_alarm+0x1ae>
     66c:	57 cf       	rjmp	.-338    	; 0x51c <set_alarm+0x5c>
     66e:	80 e8       	ldi	r24, 0x80	; 128
     670:	0e 94 24 04 	call	0x848	; 0x848 <Read_Input_Switch>
     674:	88 23       	and	r24, r24
     676:	09 f4       	brne	.+2      	; 0x67a <set_alarm+0x1ba>
     678:	4b cf       	rjmp	.-362    	; 0x510 <set_alarm+0x50>
     67a:	84 e0       	ldi	r24, 0x04	; 4
     67c:	90 e0       	ldi	r25, 0x00	; 0
     67e:	0e 94 d1 04 	call	0x9a2	; 0x9a2 <Delay_100ms>
     682:	0e 94 f8 05 	call	0xbf0	; 0xbf0 <lcd_cls>
     686:	80 e0       	ldi	r24, 0x00	; 0
     688:	60 e0       	ldi	r22, 0x00	; 0
     68a:	0e 94 f0 05 	call	0xbe0	; 0xbe0 <lcd_locate>
     68e:	87 ea       	ldi	r24, 0xA7	; 167
     690:	90 e0       	ldi	r25, 0x00	; 0
     692:	0e 94 a2 05 	call	0xb44	; 0xb44 <lcd_str_P>
     696:	81 e0       	ldi	r24, 0x01	; 1
     698:	60 e0       	ldi	r22, 0x00	; 0
     69a:	0e 94 f0 05 	call	0xbe0	; 0xbe0 <lcd_locate>
     69e:	84 ee       	ldi	r24, 0xE4	; 228
     6a0:	90 e0       	ldi	r25, 0x00	; 0
     6a2:	0e 94 a2 05 	call	0xb44	; 0xb44 <lcd_str_P>
     6a6:	88 e0       	ldi	r24, 0x08	; 8
     6a8:	0e 94 24 04 	call	0x848	; 0x848 <Read_Input_Switch>
     6ac:	88 23       	and	r24, r24
     6ae:	31 f0       	breq	.+12     	; 0x6bc <set_alarm+0x1fc>
     6b0:	80 91 28 01 	lds	r24, 0x0128
     6b4:	8f 5f       	subi	r24, 0xFF	; 255
     6b6:	80 93 28 01 	sts	0x0128, r24
     6ba:	2a cf       	rjmp	.-428    	; 0x510 <set_alarm+0x50>
     6bc:	80 e1       	ldi	r24, 0x10	; 16
     6be:	0e 94 24 04 	call	0x848	; 0x848 <Read_Input_Switch>
     6c2:	88 23       	and	r24, r24
     6c4:	39 f4       	brne	.+14     	; 0x6d4 <set_alarm+0x214>
     6c6:	80 e8       	ldi	r24, 0x80	; 128
     6c8:	0e 94 24 04 	call	0x848	; 0x848 <Read_Input_Switch>
     6cc:	88 23       	and	r24, r24
     6ce:	59 f3       	breq	.-42     	; 0x6a6 <set_alarm+0x1e6>
     6d0:	10 92 28 01 	sts	0x0128, r1
     6d4:	1f 91       	pop	r17
     6d6:	0f 91       	pop	r16
     6d8:	ff 90       	pop	r15
     6da:	08 95       	ret

000006dc <alarm_from_sensor1>:
     6dc:	fc 01       	movw	r30, r24
     6de:	80 91 ce 04 	lds	r24, 0x04CE
     6e2:	90 91 cf 04 	lds	r25, 0x04CF
     6e6:	88 23       	and	r24, r24
     6e8:	19 f4       	brne	.+6      	; 0x6f0 <alarm_from_sensor1+0x14>
     6ea:	29 2f       	mov	r18, r25
     6ec:	30 e0       	ldi	r19, 0x00	; 0
     6ee:	06 c0       	rjmp	.+12     	; 0x6fc <alarm_from_sensor1+0x20>
     6f0:	89 2f       	mov	r24, r25
     6f2:	90 e0       	ldi	r25, 0x00	; 0
     6f4:	22 27       	eor	r18, r18
     6f6:	33 27       	eor	r19, r19
     6f8:	28 1b       	sub	r18, r24
     6fa:	39 0b       	sbc	r19, r25
     6fc:	80 91 6a 03 	lds	r24, 0x036A
     700:	44 23       	and	r20, r20
     702:	51 f0       	breq	.+20     	; 0x718 <alarm_from_sensor1+0x3c>
     704:	88 23       	and	r24, r24
     706:	21 f4       	brne	.+8      	; 0x710 <alarm_from_sensor1+0x34>
     708:	26 17       	cp	r18, r22
     70a:	37 07       	cpc	r19, r23
     70c:	c4 f0       	brlt	.+48     	; 0x73e <alarm_from_sensor1+0x62>
     70e:	09 c0       	rjmp	.+18     	; 0x722 <alarm_from_sensor1+0x46>
     710:	2e 17       	cp	r18, r30
     712:	3f 07       	cpc	r19, r31
     714:	a4 f4       	brge	.+40     	; 0x73e <alarm_from_sensor1+0x62>
     716:	0e c0       	rjmp	.+28     	; 0x734 <alarm_from_sensor1+0x58>
     718:	88 23       	and	r24, r24
     71a:	49 f4       	brne	.+18     	; 0x72e <alarm_from_sensor1+0x52>
     71c:	2e 17       	cp	r18, r30
     71e:	3f 07       	cpc	r19, r31
     720:	74 f4       	brge	.+28     	; 0x73e <alarm_from_sensor1+0x62>
     722:	53 9a       	sbi	0x0a, 3	; 10
     724:	5b 9a       	sbi	0x0b, 3	; 11
     726:	81 e0       	ldi	r24, 0x01	; 1
     728:	80 93 6a 03 	sts	0x036A, r24
     72c:	08 95       	ret
     72e:	26 17       	cp	r18, r22
     730:	37 07       	cpc	r19, r23
     732:	2c f0       	brlt	.+10     	; 0x73e <alarm_from_sensor1+0x62>
     734:	5b 98       	cbi	0x0b, 3	; 11
     736:	10 92 6a 03 	sts	0x036A, r1
     73a:	80 e0       	ldi	r24, 0x00	; 0
     73c:	08 95       	ret
     73e:	08 95       	ret

00000740 <first_search_sensors>:
     740:	0e 94 6b 15 	call	0x2ad6	; 0x2ad6 <search_sensors>
     744:	80 93 d0 04 	sts	0x04D0, r24
     748:	81 e0       	ldi	r24, 0x01	; 1
     74a:	60 e0       	ldi	r22, 0x00	; 0
     74c:	70 e0       	ldi	r23, 0x00	; 0
     74e:	0e 94 22 15 	call	0x2a44	; 0x2a44 <DS18X20_start_meas>
     752:	80 e4       	ldi	r24, 0x40	; 64
     754:	9f e1       	ldi	r25, 0x1F	; 31
     756:	20 e9       	ldi	r18, 0x90	; 144
     758:	31 e0       	ldi	r19, 0x01	; 1
     75a:	f9 01       	movw	r30, r18
     75c:	31 97       	sbiw	r30, 0x01	; 1
     75e:	f1 f7       	brne	.-4      	; 0x75c <first_search_sensors+0x1c>
     760:	01 97       	sbiw	r24, 0x01	; 1
     762:	d9 f7       	brne	.-10     	; 0x75a <first_search_sensors+0x1a>
     764:	8f ee       	ldi	r24, 0xEF	; 239
     766:	94 e0       	ldi	r25, 0x04	; 4
     768:	6e ec       	ldi	r22, 0xCE	; 206
     76a:	74 e0       	ldi	r23, 0x04	; 4
     76c:	4f ec       	ldi	r20, 0xCF	; 207
     76e:	54 e0       	ldi	r21, 0x04	; 4
     770:	2d ec       	ldi	r18, 0xCD	; 205
     772:	34 e0       	ldi	r19, 0x04	; 4
     774:	0e 94 c7 14 	call	0x298e	; 0x298e <DS18X20_read_meas>
     778:	88 23       	and	r24, r24
     77a:	41 f0       	breq	.+16     	; 0x78c <first_search_sensors+0x4c>
     77c:	81 e0       	ldi	r24, 0x01	; 1
     77e:	60 e0       	ldi	r22, 0x00	; 0
     780:	0e 94 f0 05 	call	0xbe0	; 0xbe0 <lcd_locate>
     784:	89 e2       	ldi	r24, 0x29	; 41
     786:	91 e0       	ldi	r25, 0x01	; 1
     788:	0e 94 90 05 	call	0xb20	; 0xb20 <lcd_put_str>
     78c:	08 95       	ret

0000078e <display_temp>:
     78e:	1f 93       	push	r17
     790:	18 2f       	mov	r17, r24
     792:	0e 94 f8 05 	call	0xbf0	; 0xbf0 <lcd_cls>
     796:	80 e0       	ldi	r24, 0x00	; 0
     798:	60 e0       	ldi	r22, 0x00	; 0
     79a:	0e 94 f0 05 	call	0xbe0	; 0xbe0 <lcd_locate>
     79e:	84 e3       	ldi	r24, 0x34	; 52
     7a0:	91 e0       	ldi	r25, 0x01	; 1
     7a2:	0e 94 90 05 	call	0xb20	; 0xb20 <lcd_put_str>
     7a6:	81 e0       	ldi	r24, 0x01	; 1
     7a8:	61 2f       	mov	r22, r17
     7aa:	0e 94 f0 05 	call	0xbe0	; 0xbe0 <lcd_locate>
     7ae:	83 e4       	ldi	r24, 0x43	; 67
     7b0:	91 e0       	ldi	r25, 0x01	; 1
     7b2:	0e 94 90 05 	call	0xb20	; 0xb20 <lcd_put_str>
     7b6:	80 91 ce 04 	lds	r24, 0x04CE
     7ba:	88 23       	and	r24, r24
     7bc:	19 f0       	breq	.+6      	; 0x7c4 <display_temp+0x36>
     7be:	86 e4       	ldi	r24, 0x46	; 70
     7c0:	91 e0       	ldi	r25, 0x01	; 1
     7c2:	02 c0       	rjmp	.+4      	; 0x7c8 <display_temp+0x3a>
     7c4:	88 e4       	ldi	r24, 0x48	; 72
     7c6:	91 e0       	ldi	r25, 0x01	; 1
     7c8:	0e 94 90 05 	call	0xb20	; 0xb20 <lcd_put_str>
     7cc:	80 91 cf 04 	lds	r24, 0x04CF
     7d0:	90 e0       	ldi	r25, 0x00	; 0
     7d2:	0e 94 e9 07 	call	0xfd2	; 0xfd2 <lcd_int>
     7d6:	8a e4       	ldi	r24, 0x4A	; 74
     7d8:	91 e0       	ldi	r25, 0x01	; 1
     7da:	0e 94 90 05 	call	0xb20	; 0xb20 <lcd_put_str>
     7de:	80 91 cd 04 	lds	r24, 0x04CD
     7e2:	90 e0       	ldi	r25, 0x00	; 0
     7e4:	0e 94 e9 07 	call	0xfd2	; 0xfd2 <lcd_int>
     7e8:	8c e4       	ldi	r24, 0x4C	; 76
     7ea:	91 e0       	ldi	r25, 0x01	; 1
     7ec:	0e 94 90 05 	call	0xb20	; 0xb20 <lcd_put_str>
     7f0:	1f 91       	pop	r17
     7f2:	08 95       	ret

000007f4 <read_temp_from_sensors>:
     7f4:	0e 94 6b 15 	call	0x2ad6	; 0x2ad6 <search_sensors>
     7f8:	80 93 d0 04 	sts	0x04D0, r24
     7fc:	81 e0       	ldi	r24, 0x01	; 1
     7fe:	60 e0       	ldi	r22, 0x00	; 0
     800:	70 e0       	ldi	r23, 0x00	; 0
     802:	0e 94 22 15 	call	0x2a44	; 0x2a44 <DS18X20_start_meas>
     806:	8f ee       	ldi	r24, 0xEF	; 239
     808:	94 e0       	ldi	r25, 0x04	; 4
     80a:	6e ec       	ldi	r22, 0xCE	; 206
     80c:	74 e0       	ldi	r23, 0x04	; 4
     80e:	4f ec       	ldi	r20, 0xCF	; 207
     810:	54 e0       	ldi	r21, 0x04	; 4
     812:	2d ec       	ldi	r18, 0xCD	; 205
     814:	34 e0       	ldi	r19, 0x04	; 4
     816:	0e 94 c7 14 	call	0x298e	; 0x298e <DS18X20_read_meas>
     81a:	88 23       	and	r24, r24
     81c:	19 f4       	brne	.+6      	; 0x824 <read_temp_from_sensors+0x30>
     81e:	0e 94 c7 03 	call	0x78e	; 0x78e <display_temp>
     822:	08 95       	ret
     824:	0e 94 f8 05 	call	0xbf0	; 0xbf0 <lcd_cls>
     828:	81 e0       	ldi	r24, 0x01	; 1
     82a:	60 e0       	ldi	r22, 0x00	; 0
     82c:	0e 94 f0 05 	call	0xbe0	; 0xbe0 <lcd_locate>
     830:	80 e5       	ldi	r24, 0x50	; 80
     832:	91 e0       	ldi	r25, 0x01	; 1
     834:	0e 94 90 05 	call	0xb20	; 0xb20 <lcd_put_str>
     838:	08 95       	ret

0000083a <GPIO_Init>:
     83a:	87 b1       	in	r24, 0x07	; 7
     83c:	87 70       	andi	r24, 0x07	; 7
     83e:	87 b9       	out	0x07, r24	; 7
     840:	88 b1       	in	r24, 0x08	; 8
     842:	88 6f       	ori	r24, 0xF8	; 248
     844:	88 b9       	out	0x08, r24	; 8
     846:	08 95       	ret

00000848 <Read_Input_Switch>:
     848:	28 2f       	mov	r18, r24
     84a:	86 b1       	in	r24, 0x06	; 6
     84c:	82 23       	and	r24, r18
     84e:	11 f0       	breq	.+4      	; 0x854 <Read_Input_Switch+0xc>
     850:	90 e0       	ldi	r25, 0x00	; 0
     852:	11 c0       	rjmp	.+34     	; 0x876 <Read_Input_Switch+0x2e>
     854:	8e e1       	ldi	r24, 0x1E	; 30
     856:	90 e0       	ldi	r25, 0x00	; 0
     858:	90 93 d6 04 	sts	0x04D6, r25
     85c:	80 93 d5 04 	sts	0x04D5, r24
     860:	80 91 d5 04 	lds	r24, 0x04D5
     864:	90 91 d6 04 	lds	r25, 0x04D6
     868:	89 2b       	or	r24, r25
     86a:	d1 f7       	brne	.-12     	; 0x860 <Read_Input_Switch+0x18>
     86c:	86 b1       	in	r24, 0x06	; 6
     86e:	90 e0       	ldi	r25, 0x00	; 0
     870:	82 23       	and	r24, r18
     872:	09 f4       	brne	.+2      	; 0x876 <Read_Input_Switch+0x2e>
     874:	91 e0       	ldi	r25, 0x01	; 1
     876:	89 2f       	mov	r24, r25
     878:	08 95       	ret

0000087a <Read_Pin_Input_Switch>:
     87a:	35 99       	sbic	0x06, 5	; 6
     87c:	10 c0       	rjmp	.+32     	; 0x89e <Read_Pin_Input_Switch+0x24>
     87e:	88 e2       	ldi	r24, 0x28	; 40
     880:	90 e0       	ldi	r25, 0x00	; 0
     882:	90 93 d6 04 	sts	0x04D6, r25
     886:	80 93 d5 04 	sts	0x04D5, r24
     88a:	80 91 d5 04 	lds	r24, 0x04D5
     88e:	90 91 d6 04 	lds	r25, 0x04D6
     892:	89 2b       	or	r24, r25
     894:	d1 f7       	brne	.-12     	; 0x88a <Read_Pin_Input_Switch+0x10>
     896:	35 99       	sbic	0x06, 5	; 6
     898:	4a c0       	rjmp	.+148    	; 0x92e <Read_Pin_Input_Switch+0xb4>
     89a:	80 e2       	ldi	r24, 0x20	; 32
     89c:	08 95       	ret
     89e:	36 99       	sbic	0x06, 6	; 6
     8a0:	10 c0       	rjmp	.+32     	; 0x8c2 <Read_Pin_Input_Switch+0x48>
     8a2:	88 e2       	ldi	r24, 0x28	; 40
     8a4:	90 e0       	ldi	r25, 0x00	; 0
     8a6:	90 93 d6 04 	sts	0x04D6, r25
     8aa:	80 93 d5 04 	sts	0x04D5, r24
     8ae:	80 91 d5 04 	lds	r24, 0x04D5
     8b2:	90 91 d6 04 	lds	r25, 0x04D6
     8b6:	89 2b       	or	r24, r25
     8b8:	d1 f7       	brne	.-12     	; 0x8ae <Read_Pin_Input_Switch+0x34>
     8ba:	36 99       	sbic	0x06, 6	; 6
     8bc:	38 c0       	rjmp	.+112    	; 0x92e <Read_Pin_Input_Switch+0xb4>
     8be:	80 e4       	ldi	r24, 0x40	; 64
     8c0:	08 95       	ret
     8c2:	37 99       	sbic	0x06, 7	; 6
     8c4:	10 c0       	rjmp	.+32     	; 0x8e6 <Read_Pin_Input_Switch+0x6c>
     8c6:	88 e2       	ldi	r24, 0x28	; 40
     8c8:	90 e0       	ldi	r25, 0x00	; 0
     8ca:	90 93 d6 04 	sts	0x04D6, r25
     8ce:	80 93 d5 04 	sts	0x04D5, r24
     8d2:	80 91 d5 04 	lds	r24, 0x04D5
     8d6:	90 91 d6 04 	lds	r25, 0x04D6
     8da:	89 2b       	or	r24, r25
     8dc:	d1 f7       	brne	.-12     	; 0x8d2 <Read_Pin_Input_Switch+0x58>
     8de:	37 99       	sbic	0x06, 7	; 6
     8e0:	26 c0       	rjmp	.+76     	; 0x92e <Read_Pin_Input_Switch+0xb4>
     8e2:	80 e8       	ldi	r24, 0x80	; 128
     8e4:	08 95       	ret
     8e6:	33 99       	sbic	0x06, 3	; 6
     8e8:	10 c0       	rjmp	.+32     	; 0x90a <Read_Pin_Input_Switch+0x90>
     8ea:	88 e2       	ldi	r24, 0x28	; 40
     8ec:	90 e0       	ldi	r25, 0x00	; 0
     8ee:	90 93 d6 04 	sts	0x04D6, r25
     8f2:	80 93 d5 04 	sts	0x04D5, r24
     8f6:	80 91 d5 04 	lds	r24, 0x04D5
     8fa:	90 91 d6 04 	lds	r25, 0x04D6
     8fe:	89 2b       	or	r24, r25
     900:	d1 f7       	brne	.-12     	; 0x8f6 <Read_Pin_Input_Switch+0x7c>
     902:	33 99       	sbic	0x06, 3	; 6
     904:	14 c0       	rjmp	.+40     	; 0x92e <Read_Pin_Input_Switch+0xb4>
     906:	88 e0       	ldi	r24, 0x08	; 8
     908:	08 95       	ret
     90a:	34 99       	sbic	0x06, 4	; 6
     90c:	10 c0       	rjmp	.+32     	; 0x92e <Read_Pin_Input_Switch+0xb4>
     90e:	88 e2       	ldi	r24, 0x28	; 40
     910:	90 e0       	ldi	r25, 0x00	; 0
     912:	90 93 d6 04 	sts	0x04D6, r25
     916:	80 93 d5 04 	sts	0x04D5, r24
     91a:	80 91 d5 04 	lds	r24, 0x04D5
     91e:	90 91 d6 04 	lds	r25, 0x04D6
     922:	89 2b       	or	r24, r25
     924:	d1 f7       	brne	.-12     	; 0x91a <Read_Pin_Input_Switch+0xa0>
     926:	34 99       	sbic	0x06, 4	; 6
     928:	02 c0       	rjmp	.+4      	; 0x92e <Read_Pin_Input_Switch+0xb4>
     92a:	80 e1       	ldi	r24, 0x10	; 16
     92c:	08 95       	ret
     92e:	80 e0       	ldi	r24, 0x00	; 0
     930:	08 95       	ret

00000932 <INT0_init>:
     932:	83 e0       	ldi	r24, 0x03	; 3
     934:	80 93 69 00 	sts	0x0069, r24
     938:	81 e0       	ldi	r24, 0x01	; 1
     93a:	8d bb       	out	0x1d, r24	; 29
     93c:	52 98       	cbi	0x0a, 2	; 10
     93e:	5a 9a       	sbi	0x0b, 2	; 11
     940:	08 95       	ret

00000942 <TIMER0_init>:
     942:	84 b5       	in	r24, 0x24	; 36
     944:	82 60       	ori	r24, 0x02	; 2
     946:	84 bd       	out	0x24, r24	; 36
     948:	85 b5       	in	r24, 0x25	; 37
     94a:	83 60       	ori	r24, 0x03	; 3
     94c:	85 bd       	out	0x25, r24	; 37
     94e:	8a ef       	ldi	r24, 0xFA	; 250
     950:	87 bd       	out	0x27, r24	; 39
     952:	ee e6       	ldi	r30, 0x6E	; 110
     954:	f0 e0       	ldi	r31, 0x00	; 0
     956:	80 81       	ld	r24, Z
     958:	82 60       	ori	r24, 0x02	; 2
     95a:	80 83       	st	Z, r24
     95c:	08 95       	ret

0000095e <Delay_ms>:
     95e:	90 93 d6 04 	sts	0x04D6, r25
     962:	80 93 d5 04 	sts	0x04D5, r24
     966:	80 91 d5 04 	lds	r24, 0x04D5
     96a:	90 91 d6 04 	lds	r25, 0x04D6
     96e:	89 2b       	or	r24, r25
     970:	d1 f7       	brne	.-12     	; 0x966 <Delay_ms+0x8>
     972:	81 e0       	ldi	r24, 0x01	; 1
     974:	08 95       	ret

00000976 <Delay_sec>:
     976:	28 ee       	ldi	r18, 0xE8	; 232
     978:	33 e0       	ldi	r19, 0x03	; 3
     97a:	ac 01       	movw	r20, r24
     97c:	42 9f       	mul	r20, r18
     97e:	c0 01       	movw	r24, r0
     980:	43 9f       	mul	r20, r19
     982:	90 0d       	add	r25, r0
     984:	52 9f       	mul	r21, r18
     986:	90 0d       	add	r25, r0
     988:	11 24       	eor	r1, r1
     98a:	90 93 d4 04 	sts	0x04D4, r25
     98e:	80 93 d3 04 	sts	0x04D3, r24
     992:	80 91 d3 04 	lds	r24, 0x04D3
     996:	90 91 d4 04 	lds	r25, 0x04D4
     99a:	89 2b       	or	r24, r25
     99c:	d1 f7       	brne	.-12     	; 0x992 <Delay_sec+0x1c>
     99e:	81 e0       	ldi	r24, 0x01	; 1
     9a0:	08 95       	ret

000009a2 <Delay_100ms>:
     9a2:	24 e6       	ldi	r18, 0x64	; 100
     9a4:	30 e0       	ldi	r19, 0x00	; 0
     9a6:	ac 01       	movw	r20, r24
     9a8:	42 9f       	mul	r20, r18
     9aa:	c0 01       	movw	r24, r0
     9ac:	43 9f       	mul	r20, r19
     9ae:	90 0d       	add	r25, r0
     9b0:	52 9f       	mul	r21, r18
     9b2:	90 0d       	add	r25, r0
     9b4:	11 24       	eor	r1, r1
     9b6:	90 93 d2 04 	sts	0x04D2, r25
     9ba:	80 93 d1 04 	sts	0x04D1, r24
     9be:	80 91 d1 04 	lds	r24, 0x04D1
     9c2:	90 91 d2 04 	lds	r25, 0x04D2
     9c6:	89 2b       	or	r24, r25
     9c8:	d1 f7       	brne	.-12     	; 0x9be <Delay_100ms+0x1c>
     9ca:	81 e0       	ldi	r24, 0x01	; 1
     9cc:	08 95       	ret

000009ce <__vector_1>:
     9ce:	1f 92       	push	r1
     9d0:	0f 92       	push	r0
     9d2:	0f b6       	in	r0, 0x3f	; 63
     9d4:	0f 92       	push	r0
     9d6:	11 24       	eor	r1, r1
     9d8:	8f 93       	push	r24
     9da:	81 e0       	ldi	r24, 0x01	; 1
     9dc:	80 93 59 01 	sts	0x0159, r24
     9e0:	80 91 d7 04 	lds	r24, 0x04D7
     9e4:	8f 5f       	subi	r24, 0xFF	; 255
     9e6:	80 93 d7 04 	sts	0x04D7, r24
     9ea:	80 91 d7 04 	lds	r24, 0x04D7
     9ee:	8d 33       	cpi	r24, 0x3D	; 61
     9f0:	10 f0       	brcs	.+4      	; 0x9f6 <__vector_1+0x28>
     9f2:	10 92 d7 04 	sts	0x04D7, r1
     9f6:	8f 91       	pop	r24
     9f8:	0f 90       	pop	r0
     9fa:	0f be       	out	0x3f, r0	; 63
     9fc:	0f 90       	pop	r0
     9fe:	1f 90       	pop	r1
     a00:	18 95       	reti

00000a02 <__vector_16>:
     a02:	1f 92       	push	r1
     a04:	0f 92       	push	r0
     a06:	0f b6       	in	r0, 0x3f	; 63
     a08:	0f 92       	push	r0
     a0a:	11 24       	eor	r1, r1
     a0c:	8f 93       	push	r24
     a0e:	9f 93       	push	r25
     a10:	16 bc       	out	0x26, r1	; 38
     a12:	80 91 d5 04 	lds	r24, 0x04D5
     a16:	90 91 d6 04 	lds	r25, 0x04D6
     a1a:	00 97       	sbiw	r24, 0x00	; 0
     a1c:	29 f0       	breq	.+10     	; 0xa28 <__vector_16+0x26>
     a1e:	01 97       	sbiw	r24, 0x01	; 1
     a20:	90 93 d6 04 	sts	0x04D6, r25
     a24:	80 93 d5 04 	sts	0x04D5, r24
     a28:	80 91 d3 04 	lds	r24, 0x04D3
     a2c:	90 91 d4 04 	lds	r25, 0x04D4
     a30:	00 97       	sbiw	r24, 0x00	; 0
     a32:	29 f0       	breq	.+10     	; 0xa3e <__vector_16+0x3c>
     a34:	01 97       	sbiw	r24, 0x01	; 1
     a36:	90 93 d4 04 	sts	0x04D4, r25
     a3a:	80 93 d3 04 	sts	0x04D3, r24
     a3e:	80 91 d1 04 	lds	r24, 0x04D1
     a42:	90 91 d2 04 	lds	r25, 0x04D2
     a46:	00 97       	sbiw	r24, 0x00	; 0
     a48:	29 f0       	breq	.+10     	; 0xa54 <__vector_16+0x52>
     a4a:	01 97       	sbiw	r24, 0x01	; 1
     a4c:	90 93 d2 04 	sts	0x04D2, r25
     a50:	80 93 d1 04 	sts	0x04D1, r24
     a54:	9f 91       	pop	r25
     a56:	8f 91       	pop	r24
     a58:	0f 90       	pop	r0
     a5a:	0f be       	out	0x3f, r0	; 63
     a5c:	0f 90       	pop	r0
     a5e:	1f 90       	pop	r1
     a60:	18 95       	reti

00000a62 <lcd_sendHalf>:
     a62:	80 ff       	sbrs	r24, 0
     a64:	02 c0       	rjmp	.+4      	; 0xa6a <lcd_sendHalf+0x8>
     a66:	10 9a       	sbi	0x02, 0	; 2
     a68:	01 c0       	rjmp	.+2      	; 0xa6c <lcd_sendHalf+0xa>
     a6a:	10 98       	cbi	0x02, 0	; 2
     a6c:	81 ff       	sbrs	r24, 1
     a6e:	02 c0       	rjmp	.+4      	; 0xa74 <lcd_sendHalf+0x12>
     a70:	11 9a       	sbi	0x02, 1	; 2
     a72:	01 c0       	rjmp	.+2      	; 0xa76 <lcd_sendHalf+0x14>
     a74:	11 98       	cbi	0x02, 1	; 2
     a76:	82 ff       	sbrs	r24, 2
     a78:	02 c0       	rjmp	.+4      	; 0xa7e <lcd_sendHalf+0x1c>
     a7a:	12 9a       	sbi	0x02, 2	; 2
     a7c:	01 c0       	rjmp	.+2      	; 0xa80 <lcd_sendHalf+0x1e>
     a7e:	12 98       	cbi	0x02, 2	; 2
     a80:	83 ff       	sbrs	r24, 3
     a82:	02 c0       	rjmp	.+4      	; 0xa88 <lcd_sendHalf+0x26>
     a84:	13 9a       	sbi	0x02, 3	; 2
     a86:	08 95       	ret
     a88:	13 98       	cbi	0x02, 3	; 2
     a8a:	08 95       	ret

00000a8c <lcd_readHalf>:
     a8c:	80 b1       	in	r24, 0x00	; 0
     a8e:	81 70       	andi	r24, 0x01	; 1
     a90:	01 99       	sbic	0x00, 1	; 0
     a92:	82 60       	ori	r24, 0x02	; 2
     a94:	02 99       	sbic	0x00, 2	; 0
     a96:	84 60       	ori	r24, 0x04	; 4
     a98:	03 99       	sbic	0x00, 3	; 0
     a9a:	88 60       	ori	r24, 0x08	; 8
     a9c:	08 95       	ret

00000a9e <_lcd_read_byte>:
     a9e:	1f 93       	push	r17
     aa0:	0b 98       	cbi	0x01, 3	; 1
     aa2:	0a 98       	cbi	0x01, 2	; 1
     aa4:	09 98       	cbi	0x01, 1	; 1
     aa6:	08 98       	cbi	0x01, 0	; 1
     aa8:	29 9a       	sbi	0x05, 1	; 5
     aaa:	2a 9a       	sbi	0x05, 2	; 5
     aac:	0e 94 46 05 	call	0xa8c	; 0xa8c <lcd_readHalf>
     ab0:	18 2f       	mov	r17, r24
     ab2:	12 95       	swap	r17
     ab4:	10 7f       	andi	r17, 0xF0	; 240
     ab6:	2a 98       	cbi	0x05, 2	; 5
     ab8:	2a 9a       	sbi	0x05, 2	; 5
     aba:	0e 94 46 05 	call	0xa8c	; 0xa8c <lcd_readHalf>
     abe:	2a 98       	cbi	0x05, 2	; 5
     ac0:	81 2b       	or	r24, r17
     ac2:	1f 91       	pop	r17
     ac4:	08 95       	ret

00000ac6 <check_BF>:
     ac6:	28 98       	cbi	0x05, 0	; 5
     ac8:	0e 94 4f 05 	call	0xa9e	; 0xa9e <_lcd_read_byte>
     acc:	08 95       	ret

00000ace <_lcd_write_byte>:
     ace:	1f 93       	push	r17
     ad0:	18 2f       	mov	r17, r24
     ad2:	0b 9a       	sbi	0x01, 3	; 1
     ad4:	0a 9a       	sbi	0x01, 2	; 1
     ad6:	09 9a       	sbi	0x01, 1	; 1
     ad8:	08 9a       	sbi	0x01, 0	; 1
     ada:	29 98       	cbi	0x05, 1	; 5
     adc:	2a 9a       	sbi	0x05, 2	; 5
     ade:	82 95       	swap	r24
     ae0:	8f 70       	andi	r24, 0x0F	; 15
     ae2:	0e 94 31 05 	call	0xa62	; 0xa62 <lcd_sendHalf>
     ae6:	2a 98       	cbi	0x05, 2	; 5
     ae8:	2a 9a       	sbi	0x05, 2	; 5
     aea:	81 2f       	mov	r24, r17
     aec:	0e 94 31 05 	call	0xa62	; 0xa62 <lcd_sendHalf>
     af0:	2a 98       	cbi	0x05, 2	; 5
     af2:	0e 94 63 05 	call	0xac6	; 0xac6 <check_BF>
     af6:	87 fd       	sbrc	r24, 7
     af8:	fc cf       	rjmp	.-8      	; 0xaf2 <_lcd_write_byte+0x24>
     afa:	1f 91       	pop	r17
     afc:	08 95       	ret

00000afe <lcd_write_cmd>:
     afe:	28 98       	cbi	0x05, 0	; 5
     b00:	0e 94 67 05 	call	0xace	; 0xace <_lcd_write_byte>
     b04:	08 95       	ret

00000b06 <lcd_write_data>:
     b06:	28 9a       	sbi	0x05, 0	; 5
     b08:	0e 94 67 05 	call	0xace	; 0xace <_lcd_write_byte>
     b0c:	08 95       	ret

00000b0e <lcd_char>:
     b0e:	98 2f       	mov	r25, r24
     b10:	80 58       	subi	r24, 0x80	; 128
     b12:	88 30       	cpi	r24, 0x08	; 8
     b14:	08 f4       	brcc	.+2      	; 0xb18 <lcd_char+0xa>
     b16:	97 70       	andi	r25, 0x07	; 7
     b18:	89 2f       	mov	r24, r25
     b1a:	0e 94 83 05 	call	0xb06	; 0xb06 <lcd_write_data>
     b1e:	08 95       	ret

00000b20 <lcd_put_str>:
     b20:	cf 93       	push	r28
     b22:	df 93       	push	r29
     b24:	ec 01       	movw	r28, r24
     b26:	08 c0       	rjmp	.+16     	; 0xb38 <lcd_put_str+0x18>
     b28:	89 2f       	mov	r24, r25
     b2a:	80 58       	subi	r24, 0x80	; 128
     b2c:	88 30       	cpi	r24, 0x08	; 8
     b2e:	08 f4       	brcc	.+2      	; 0xb32 <lcd_put_str+0x12>
     b30:	97 70       	andi	r25, 0x07	; 7
     b32:	89 2f       	mov	r24, r25
     b34:	0e 94 83 05 	call	0xb06	; 0xb06 <lcd_write_data>
     b38:	99 91       	ld	r25, Y+
     b3a:	99 23       	and	r25, r25
     b3c:	a9 f7       	brne	.-22     	; 0xb28 <lcd_put_str+0x8>
     b3e:	df 91       	pop	r29
     b40:	cf 91       	pop	r28
     b42:	08 95       	ret

00000b44 <lcd_str_P>:
     b44:	cf 93       	push	r28
     b46:	df 93       	push	r29
     b48:	ec 01       	movw	r28, r24
     b4a:	0a c0       	rjmp	.+20     	; 0xb60 <lcd_str_P+0x1c>
     b4c:	89 2f       	mov	r24, r25
     b4e:	80 58       	subi	r24, 0x80	; 128
     b50:	88 30       	cpi	r24, 0x08	; 8
     b52:	10 f0       	brcs	.+4      	; 0xb58 <lcd_str_P+0x14>
     b54:	89 2f       	mov	r24, r25
     b56:	02 c0       	rjmp	.+4      	; 0xb5c <lcd_str_P+0x18>
     b58:	89 2f       	mov	r24, r25
     b5a:	87 70       	andi	r24, 0x07	; 7
     b5c:	0e 94 83 05 	call	0xb06	; 0xb06 <lcd_write_data>
     b60:	fe 01       	movw	r30, r28
     b62:	21 96       	adiw	r28, 0x01	; 1
     b64:	94 91       	lpm	r25, Z+
     b66:	99 23       	and	r25, r25
     b68:	89 f7       	brne	.-30     	; 0xb4c <lcd_str_P+0x8>
     b6a:	df 91       	pop	r29
     b6c:	cf 91       	pop	r28
     b6e:	08 95       	ret

00000b70 <lcd_defchar>:
     b70:	1f 93       	push	r17
     b72:	cf 93       	push	r28
     b74:	df 93       	push	r29
     b76:	eb 01       	movw	r28, r22
     b78:	90 e0       	ldi	r25, 0x00	; 0
     b7a:	87 70       	andi	r24, 0x07	; 7
     b7c:	90 70       	andi	r25, 0x00	; 0
     b7e:	08 96       	adiw	r24, 0x08	; 8
     b80:	88 0f       	add	r24, r24
     b82:	88 0f       	add	r24, r24
     b84:	88 0f       	add	r24, r24
     b86:	0e 94 7f 05 	call	0xafe	; 0xafe <lcd_write_cmd>
     b8a:	10 e0       	ldi	r17, 0x00	; 0
     b8c:	89 91       	ld	r24, Y+
     b8e:	0e 94 83 05 	call	0xb06	; 0xb06 <lcd_write_data>
     b92:	1f 5f       	subi	r17, 0xFF	; 255
     b94:	18 30       	cpi	r17, 0x08	; 8
     b96:	d1 f7       	brne	.-12     	; 0xb8c <lcd_defchar+0x1c>
     b98:	df 91       	pop	r29
     b9a:	cf 91       	pop	r28
     b9c:	1f 91       	pop	r17
     b9e:	08 95       	ret

00000ba0 <lcd_defchar_P>:
     ba0:	0f 93       	push	r16
     ba2:	1f 93       	push	r17
     ba4:	cf 93       	push	r28
     ba6:	df 93       	push	r29
     ba8:	8b 01       	movw	r16, r22
     baa:	90 e0       	ldi	r25, 0x00	; 0
     bac:	87 70       	andi	r24, 0x07	; 7
     bae:	90 70       	andi	r25, 0x00	; 0
     bb0:	08 96       	adiw	r24, 0x08	; 8
     bb2:	88 0f       	add	r24, r24
     bb4:	88 0f       	add	r24, r24
     bb6:	88 0f       	add	r24, r24
     bb8:	0e 94 7f 05 	call	0xafe	; 0xafe <lcd_write_cmd>
     bbc:	c0 e0       	ldi	r28, 0x00	; 0
     bbe:	d0 e0       	ldi	r29, 0x00	; 0
     bc0:	f8 01       	movw	r30, r16
     bc2:	ec 0f       	add	r30, r28
     bc4:	fd 1f       	adc	r31, r29
     bc6:	e4 91       	lpm	r30, Z+
     bc8:	8e 2f       	mov	r24, r30
     bca:	0e 94 83 05 	call	0xb06	; 0xb06 <lcd_write_data>
     bce:	21 96       	adiw	r28, 0x01	; 1
     bd0:	c8 30       	cpi	r28, 0x08	; 8
     bd2:	d1 05       	cpc	r29, r1
     bd4:	a9 f7       	brne	.-22     	; 0xbc0 <lcd_defchar_P+0x20>
     bd6:	df 91       	pop	r29
     bd8:	cf 91       	pop	r28
     bda:	1f 91       	pop	r17
     bdc:	0f 91       	pop	r16
     bde:	08 95       	ret

00000be0 <lcd_locate>:
     be0:	81 30       	cpi	r24, 0x01	; 1
     be2:	09 f4       	brne	.+2      	; 0xbe6 <lcd_locate+0x6>
     be4:	80 e4       	ldi	r24, 0x40	; 64
     be6:	60 58       	subi	r22, 0x80	; 128
     be8:	86 0f       	add	r24, r22
     bea:	0e 94 7f 05 	call	0xafe	; 0xafe <lcd_write_cmd>
     bee:	08 95       	ret

00000bf0 <lcd_cls>:
     bf0:	81 e0       	ldi	r24, 0x01	; 1
     bf2:	0e 94 7f 05 	call	0xafe	; 0xafe <lcd_write_cmd>
     bf6:	08 95       	ret

00000bf8 <lcd_home>:
     bf8:	83 e0       	ldi	r24, 0x03	; 3
     bfa:	0e 94 7f 05 	call	0xafe	; 0xafe <lcd_write_cmd>
     bfe:	08 95       	ret

00000c00 <lcd_cursor_on>:
     c00:	8e e0       	ldi	r24, 0x0E	; 14
     c02:	0e 94 7f 05 	call	0xafe	; 0xafe <lcd_write_cmd>
     c06:	08 95       	ret

00000c08 <lcd_cursor_off>:
     c08:	8c e0       	ldi	r24, 0x0C	; 12
     c0a:	0e 94 7f 05 	call	0xafe	; 0xafe <lcd_write_cmd>
     c0e:	08 95       	ret

00000c10 <lcd_blink_on>:
     c10:	8f e0       	ldi	r24, 0x0F	; 15
     c12:	0e 94 7f 05 	call	0xafe	; 0xafe <lcd_write_cmd>
     c16:	08 95       	ret

00000c18 <lcd_blink_off>:
     c18:	8c e0       	ldi	r24, 0x0C	; 12
     c1a:	0e 94 7f 05 	call	0xafe	; 0xafe <lcd_write_cmd>
     c1e:	08 95       	ret

00000c20 <lcd_init>:
     c20:	0f 93       	push	r16
     c22:	1f 93       	push	r17
     c24:	0b 9a       	sbi	0x01, 3	; 1
     c26:	0a 9a       	sbi	0x01, 2	; 1
     c28:	09 9a       	sbi	0x01, 1	; 1
     c2a:	08 9a       	sbi	0x01, 0	; 1
     c2c:	20 9a       	sbi	0x04, 0	; 4
     c2e:	22 9a       	sbi	0x04, 2	; 4
     c30:	21 9a       	sbi	0x04, 1	; 4
     c32:	28 98       	cbi	0x05, 0	; 5
     c34:	2a 98       	cbi	0x05, 2	; 5
     c36:	29 98       	cbi	0x05, 1	; 5
     c38:	80 e6       	ldi	r24, 0x60	; 96
     c3a:	9a ee       	ldi	r25, 0xEA	; 234
     c3c:	01 97       	sbiw	r24, 0x01	; 1
     c3e:	f1 f7       	brne	.-4      	; 0xc3c <lcd_init+0x1c>
     c40:	28 98       	cbi	0x05, 0	; 5
     c42:	29 98       	cbi	0x05, 1	; 5
     c44:	80 e3       	ldi	r24, 0x30	; 48
     c46:	0e 94 31 05 	call	0xa62	; 0xa62 <lcd_sendHalf>
     c4a:	80 e1       	ldi	r24, 0x10	; 16
     c4c:	90 e4       	ldi	r25, 0x40	; 64
     c4e:	01 97       	sbiw	r24, 0x01	; 1
     c50:	f1 f7       	brne	.-4      	; 0xc4e <lcd_init+0x2e>
     c52:	80 e3       	ldi	r24, 0x30	; 48
     c54:	0e 94 31 05 	call	0xa62	; 0xa62 <lcd_sendHalf>
     c58:	00 e9       	ldi	r16, 0x90	; 144
     c5a:	11 e0       	ldi	r17, 0x01	; 1
     c5c:	c8 01       	movw	r24, r16
     c5e:	01 97       	sbiw	r24, 0x01	; 1
     c60:	f1 f7       	brne	.-4      	; 0xc5e <lcd_init+0x3e>
     c62:	80 e2       	ldi	r24, 0x20	; 32
     c64:	0e 94 31 05 	call	0xa62	; 0xa62 <lcd_sendHalf>
     c68:	c8 01       	movw	r24, r16
     c6a:	01 97       	sbiw	r24, 0x01	; 1
     c6c:	f1 f7       	brne	.-4      	; 0xc6a <lcd_init+0x4a>
     c6e:	88 e2       	ldi	r24, 0x28	; 40
     c70:	0e 94 7f 05 	call	0xafe	; 0xafe <lcd_write_cmd>
     c74:	88 e0       	ldi	r24, 0x08	; 8
     c76:	0e 94 7f 05 	call	0xafe	; 0xafe <lcd_write_cmd>
     c7a:	8c e0       	ldi	r24, 0x0C	; 12
     c7c:	0e 94 7f 05 	call	0xafe	; 0xafe <lcd_write_cmd>
     c80:	86 e0       	ldi	r24, 0x06	; 6
     c82:	0e 94 7f 05 	call	0xafe	; 0xafe <lcd_write_cmd>
     c86:	0e 94 f8 05 	call	0xbf0	; 0xbf0 <lcd_cls>
     c8a:	1f 91       	pop	r17
     c8c:	0f 91       	pop	r16
     c8e:	08 95       	ret

00000c90 <move_char_on_lcd>:
     c90:	2f 92       	push	r2
     c92:	3f 92       	push	r3
     c94:	4f 92       	push	r4
     c96:	5f 92       	push	r5
     c98:	6f 92       	push	r6
     c9a:	7f 92       	push	r7
     c9c:	8f 92       	push	r8
     c9e:	9f 92       	push	r9
     ca0:	af 92       	push	r10
     ca2:	bf 92       	push	r11
     ca4:	cf 92       	push	r12
     ca6:	df 92       	push	r13
     ca8:	ef 92       	push	r14
     caa:	ff 92       	push	r15
     cac:	0f 93       	push	r16
     cae:	1f 93       	push	r17
     cb0:	df 93       	push	r29
     cb2:	cf 93       	push	r28
     cb4:	cd b7       	in	r28, 0x3d	; 61
     cb6:	de b7       	in	r29, 0x3e	; 62
     cb8:	c0 55       	subi	r28, 0x50	; 80
     cba:	d0 40       	sbci	r29, 0x00	; 0
     cbc:	0f b6       	in	r0, 0x3f	; 63
     cbe:	f8 94       	cli
     cc0:	de bf       	out	0x3e, r29	; 62
     cc2:	0f be       	out	0x3f, r0	; 63
     cc4:	cd bf       	out	0x3d, r28	; 61
     cc6:	dc 01       	movw	r26, r24
     cc8:	9b 01       	movw	r18, r22
     cca:	90 91 6c 03 	lds	r25, 0x036C
     cce:	ae 01       	movw	r20, r28
     cd0:	4f 5f       	subi	r20, 0xFF	; 255
     cd2:	5f 4f       	sbci	r21, 0xFF	; 255
     cd4:	06 c0       	rjmp	.+12     	; 0xce2 <move_char_on_lcd+0x52>
     cd6:	fa 01       	movw	r30, r20
     cd8:	e9 0f       	add	r30, r25
     cda:	f1 1d       	adc	r31, r1
     cdc:	80 83       	st	Z, r24
     cde:	11 96       	adiw	r26, 0x01	; 1
     ce0:	9f 5f       	subi	r25, 0xFF	; 255
     ce2:	8c 91       	ld	r24, X
     ce4:	88 23       	and	r24, r24
     ce6:	b9 f7       	brne	.-18     	; 0xcd6 <move_char_on_lcd+0x46>
     ce8:	90 93 6c 03 	sts	0x036C, r25
     cec:	80 91 6b 03 	lds	r24, 0x036B
     cf0:	be 01       	movw	r22, r28
     cf2:	67 5d       	subi	r22, 0xD7	; 215
     cf4:	7f 4f       	sbci	r23, 0xFF	; 255
     cf6:	07 c0       	rjmp	.+14     	; 0xd06 <move_char_on_lcd+0x76>
     cf8:	fb 01       	movw	r30, r22
     cfa:	e8 0f       	add	r30, r24
     cfc:	f1 1d       	adc	r31, r1
     cfe:	40 83       	st	Z, r20
     d00:	2f 5f       	subi	r18, 0xFF	; 255
     d02:	3f 4f       	sbci	r19, 0xFF	; 255
     d04:	8f 5f       	subi	r24, 0xFF	; 255
     d06:	f9 01       	movw	r30, r18
     d08:	40 81       	ld	r20, Z
     d0a:	44 23       	and	r20, r20
     d0c:	a9 f7       	brne	.-22     	; 0xcf8 <move_char_on_lcd+0x68>
     d0e:	80 93 6b 03 	sts	0x036B, r24
     d12:	90 31       	cpi	r25, 0x10	; 16
     d14:	08 f0       	brcs	.+2      	; 0xd18 <move_char_on_lcd+0x88>
     d16:	54 c0       	rjmp	.+168    	; 0xdc0 <move_char_on_lcd+0x130>
     d18:	80 31       	cpi	r24, 0x10	; 16
     d1a:	08 f0       	brcs	.+2      	; 0xd1e <move_char_on_lcd+0x8e>
     d1c:	ee c0       	rjmp	.+476    	; 0xefa <move_char_on_lcd+0x26a>
     d1e:	98 17       	cp	r25, r24
     d20:	18 f0       	brcs	.+6      	; 0xd28 <move_char_on_lcd+0x98>
     d22:	00 e1       	ldi	r16, 0x10	; 16
     d24:	09 1b       	sub	r16, r25
     d26:	02 c0       	rjmp	.+4      	; 0xd2c <move_char_on_lcd+0x9c>
     d28:	00 e1       	ldi	r16, 0x10	; 16
     d2a:	08 1b       	sub	r16, r24
     d2c:	10 e0       	ldi	r17, 0x00	; 0
     d2e:	69 e2       	ldi	r22, 0x29	; 41
     d30:	c6 2e       	mov	r12, r22
     d32:	d1 2c       	mov	r13, r1
     d34:	cc 0e       	add	r12, r28
     d36:	dd 1e       	adc	r13, r29
     d38:	7e 01       	movw	r14, r28
     d3a:	08 94       	sec
     d3c:	e1 1c       	adc	r14, r1
     d3e:	f1 1c       	adc	r15, r1
     d40:	1c c0       	rjmp	.+56     	; 0xd7a <move_char_on_lcd+0xea>
     d42:	80 91 6c 03 	lds	r24, 0x036C
     d46:	88 23       	and	r24, r24
     d48:	31 f0       	breq	.+12     	; 0xd56 <move_char_on_lcd+0xc6>
     d4a:	80 e0       	ldi	r24, 0x00	; 0
     d4c:	61 2f       	mov	r22, r17
     d4e:	0e 94 f0 05 	call	0xbe0	; 0xbe0 <lcd_locate>
     d52:	c7 01       	movw	r24, r14
     d54:	09 c0       	rjmp	.+18     	; 0xd68 <move_char_on_lcd+0xd8>
     d56:	80 91 6b 03 	lds	r24, 0x036B
     d5a:	88 23       	and	r24, r24
     d5c:	39 f0       	breq	.+14     	; 0xd6c <move_char_on_lcd+0xdc>
     d5e:	81 e0       	ldi	r24, 0x01	; 1
     d60:	61 2f       	mov	r22, r17
     d62:	0e 94 f0 05 	call	0xbe0	; 0xbe0 <lcd_locate>
     d66:	c6 01       	movw	r24, r12
     d68:	0e 94 90 05 	call	0xb20	; 0xb20 <lcd_put_str>
     d6c:	85 e0       	ldi	r24, 0x05	; 5
     d6e:	90 e0       	ldi	r25, 0x00	; 0
     d70:	0e 94 d1 04 	call	0x9a2	; 0x9a2 <Delay_100ms>
     d74:	0e 94 f8 05 	call	0xbf0	; 0xbf0 <lcd_cls>
     d78:	1f 5f       	subi	r17, 0xFF	; 255
     d7a:	10 17       	cp	r17, r16
     d7c:	11 f7       	brne	.-60     	; 0xd42 <move_char_on_lcd+0xb2>
     d7e:	10 2f       	mov	r17, r16
     d80:	1c c0       	rjmp	.+56     	; 0xdba <move_char_on_lcd+0x12a>
     d82:	80 91 6c 03 	lds	r24, 0x036C
     d86:	88 23       	and	r24, r24
     d88:	31 f0       	breq	.+12     	; 0xd96 <move_char_on_lcd+0x106>
     d8a:	80 e0       	ldi	r24, 0x00	; 0
     d8c:	61 2f       	mov	r22, r17
     d8e:	0e 94 f0 05 	call	0xbe0	; 0xbe0 <lcd_locate>
     d92:	c7 01       	movw	r24, r14
     d94:	09 c0       	rjmp	.+18     	; 0xda8 <move_char_on_lcd+0x118>
     d96:	80 91 6b 03 	lds	r24, 0x036B
     d9a:	88 23       	and	r24, r24
     d9c:	39 f0       	breq	.+14     	; 0xdac <move_char_on_lcd+0x11c>
     d9e:	81 e0       	ldi	r24, 0x01	; 1
     da0:	61 2f       	mov	r22, r17
     da2:	0e 94 f0 05 	call	0xbe0	; 0xbe0 <lcd_locate>
     da6:	c6 01       	movw	r24, r12
     da8:	0e 94 90 05 	call	0xb20	; 0xb20 <lcd_put_str>
     dac:	84 ef       	ldi	r24, 0xF4	; 244
     dae:	91 e0       	ldi	r25, 0x01	; 1
     db0:	0e 94 af 04 	call	0x95e	; 0x95e <Delay_ms>
     db4:	0e 94 f8 05 	call	0xbf0	; 0xbf0 <lcd_cls>
     db8:	11 50       	subi	r17, 0x01	; 1
     dba:	11 23       	and	r17, r17
     dbc:	11 f7       	brne	.-60     	; 0xd82 <move_char_on_lcd+0xf2>
     dbe:	dd cf       	rjmp	.-70     	; 0xd7a <move_char_on_lcd+0xea>
     dc0:	51 ef       	ldi	r21, 0xF1	; 241
     dc2:	75 2e       	mov	r7, r21
     dc4:	79 0e       	add	r7, r25
     dc6:	7e 01       	movw	r14, r28
     dc8:	08 94       	sec
     dca:	e1 1c       	adc	r14, r1
     dcc:	f1 1c       	adc	r15, r1
     dce:	20 e0       	ldi	r18, 0x00	; 0
     dd0:	49 e2       	ldi	r20, 0x29	; 41
     dd2:	44 2e       	mov	r4, r20
     dd4:	51 2c       	mov	r5, r1
     dd6:	4c 0e       	add	r4, r28
     dd8:	5d 1e       	adc	r5, r29
     dda:	c7 2c       	mov	r12, r7
     ddc:	dd 24       	eor	r13, r13
     dde:	82 e0       	ldi	r24, 0x02	; 2
     de0:	90 e0       	ldi	r25, 0x00	; 0
     de2:	c8 0e       	add	r12, r24
     de4:	d9 1e       	adc	r13, r25
     de6:	47 01       	movw	r8, r14
     de8:	30 e1       	ldi	r19, 0x10	; 16
     dea:	23 2e       	mov	r2, r19
     dec:	93 e1       	ldi	r25, 0x13	; 19
     dee:	39 2e       	mov	r3, r25
     df0:	82 e0       	ldi	r24, 0x02	; 2
     df2:	68 2e       	mov	r6, r24
     df4:	76 c0       	rjmp	.+236    	; 0xee2 <move_char_on_lcd+0x252>
     df6:	f7 01       	movw	r30, r14
     df8:	80 81       	ld	r24, Z
     dfa:	88 23       	and	r24, r24
     dfc:	51 f0       	breq	.+20     	; 0xe12 <move_char_on_lcd+0x182>
     dfe:	80 e0       	ldi	r24, 0x00	; 0
     e00:	60 e0       	ldi	r22, 0x00	; 0
     e02:	0e 94 f0 05 	call	0xbe0	; 0xbe0 <lcd_locate>
     e06:	c7 01       	movw	r24, r14
     e08:	0e 94 90 05 	call	0xb20	; 0xb20 <lcd_put_str>
     e0c:	08 94       	sec
     e0e:	e1 1c       	adc	r14, r1
     e10:	f1 1c       	adc	r15, r1
     e12:	80 91 6b 03 	lds	r24, 0x036B
     e16:	88 23       	and	r24, r24
     e18:	39 f0       	breq	.+14     	; 0xe28 <move_char_on_lcd+0x198>
     e1a:	81 e0       	ldi	r24, 0x01	; 1
     e1c:	60 e0       	ldi	r22, 0x00	; 0
     e1e:	0e 94 f0 05 	call	0xbe0	; 0xbe0 <lcd_locate>
     e22:	c2 01       	movw	r24, r4
     e24:	0e 94 90 05 	call	0xb20	; 0xb20 <lcd_put_str>
     e28:	07 15       	cp	r16, r7
     e2a:	08 f4       	brcc	.+2      	; 0xe2e <move_char_on_lcd+0x19e>
     e2c:	52 c0       	rjmp	.+164    	; 0xed2 <move_char_on_lcd+0x242>
     e2e:	10 91 64 01 	lds	r17, 0x0164
     e32:	11 30       	cpi	r17, 0x01	; 1
     e34:	e9 f0       	breq	.+58     	; 0xe70 <move_char_on_lcd+0x1e0>
     e36:	11 30       	cpi	r17, 0x01	; 1
     e38:	f0 f0       	brcs	.+60     	; 0xe76 <move_char_on_lcd+0x1e6>
     e3a:	12 30       	cpi	r17, 0x02	; 2
     e3c:	69 f0       	breq	.+26     	; 0xe58 <move_char_on_lcd+0x1c8>
     e3e:	13 30       	cpi	r17, 0x03	; 3
     e40:	e9 f4       	brne	.+58     	; 0xe7c <move_char_on_lcd+0x1ec>
     e42:	80 e0       	ldi	r24, 0x00	; 0
     e44:	60 e0       	ldi	r22, 0x00	; 0
     e46:	0e 94 f0 05 	call	0xbe0	; 0xbe0 <lcd_locate>
     e4a:	8a e5       	ldi	r24, 0x5A	; 90
     e4c:	91 e0       	ldi	r25, 0x01	; 1
     e4e:	0e 94 90 05 	call	0xb20	; 0xb20 <lcd_put_str>
     e52:	60 92 64 01 	sts	0x0164, r6
     e56:	1e c0       	rjmp	.+60     	; 0xe94 <move_char_on_lcd+0x204>
     e58:	80 e0       	ldi	r24, 0x00	; 0
     e5a:	60 e0       	ldi	r22, 0x00	; 0
     e5c:	0e 94 f0 05 	call	0xbe0	; 0xbe0 <lcd_locate>
     e60:	8d e5       	ldi	r24, 0x5D	; 93
     e62:	91 e0       	ldi	r25, 0x01	; 1
     e64:	0e 94 90 05 	call	0xb20	; 0xb20 <lcd_put_str>
     e68:	81 e0       	ldi	r24, 0x01	; 1
     e6a:	80 93 64 01 	sts	0x0164, r24
     e6e:	12 c0       	rjmp	.+36     	; 0xe94 <move_char_on_lcd+0x204>
     e70:	10 92 64 01 	sts	0x0164, r1
     e74:	0f c0       	rjmp	.+30     	; 0xe94 <move_char_on_lcd+0x204>
     e76:	0e 94 f8 05 	call	0xbf0	; 0xbf0 <lcd_cls>
     e7a:	0c c0       	rjmp	.+24     	; 0xe94 <move_char_on_lcd+0x204>
     e7c:	14 50       	subi	r17, 0x04	; 4
     e7e:	80 e0       	ldi	r24, 0x00	; 0
     e80:	61 2f       	mov	r22, r17
     e82:	0e 94 f0 05 	call	0xbe0	; 0xbe0 <lcd_locate>
     e86:	8f e5       	ldi	r24, 0x5F	; 95
     e88:	91 e0       	ldi	r25, 0x01	; 1
     e8a:	0e 94 90 05 	call	0xb20	; 0xb20 <lcd_put_str>
     e8e:	1d 5f       	subi	r17, 0xFD	; 253
     e90:	10 93 64 01 	sts	0x0164, r17
     e94:	ca 14       	cp	r12, r10
     e96:	db 04       	cpc	r13, r11
     e98:	e4 f4       	brge	.+56     	; 0xed2 <move_char_on_lcd+0x242>
     e9a:	10 91 63 01 	lds	r17, 0x0163
     e9e:	11 50       	subi	r17, 0x01	; 1
     ea0:	80 e0       	ldi	r24, 0x00	; 0
     ea2:	61 2f       	mov	r22, r17
     ea4:	0e 94 f0 05 	call	0xbe0	; 0xbe0 <lcd_locate>
     ea8:	c4 01       	movw	r24, r8
     eaa:	0e 94 90 05 	call	0xb20	; 0xb20 <lcd_put_str>
     eae:	10 93 63 01 	sts	0x0163, r17
     eb2:	8a ef       	ldi	r24, 0xFA	; 250
     eb4:	90 e0       	ldi	r25, 0x00	; 0
     eb6:	0e 94 af 04 	call	0x95e	; 0x95e <Delay_ms>
     eba:	0e 94 f8 05 	call	0xbf0	; 0xbf0 <lcd_cls>
     ebe:	80 91 63 01 	lds	r24, 0x0163
     ec2:	88 23       	and	r24, r24
     ec4:	61 f4       	brne	.+24     	; 0xede <move_char_on_lcd+0x24e>
     ec6:	20 92 63 01 	sts	0x0163, r2
     eca:	30 92 64 01 	sts	0x0164, r3
     ece:	74 01       	movw	r14, r8
     ed0:	06 c0       	rjmp	.+12     	; 0xede <move_char_on_lcd+0x24e>
     ed2:	8a ef       	ldi	r24, 0xFA	; 250
     ed4:	90 e0       	ldi	r25, 0x00	; 0
     ed6:	0e 94 af 04 	call	0x95e	; 0x95e <Delay_ms>
     eda:	0e 94 f8 05 	call	0xbf0	; 0xbf0 <lcd_cls>
     ede:	20 2f       	mov	r18, r16
     ee0:	2f 5f       	subi	r18, 0xFF	; 255
     ee2:	80 91 6c 03 	lds	r24, 0x036C
     ee6:	90 e0       	ldi	r25, 0x00	; 0
     ee8:	04 96       	adiw	r24, 0x04	; 4
     eea:	a2 2e       	mov	r10, r18
     eec:	bb 24       	eor	r11, r11
     eee:	02 2f       	mov	r16, r18
     ef0:	20 e0       	ldi	r18, 0x00	; 0
     ef2:	a8 16       	cp	r10, r24
     ef4:	b9 06       	cpc	r11, r25
     ef6:	c9 f3       	breq	.-14     	; 0xeea <move_char_on_lcd+0x25a>
     ef8:	7e cf       	rjmp	.-260    	; 0xdf6 <move_char_on_lcd+0x166>
     efa:	c0 5b       	subi	r28, 0xB0	; 176
     efc:	df 4f       	sbci	r29, 0xFF	; 255
     efe:	0f b6       	in	r0, 0x3f	; 63
     f00:	f8 94       	cli
     f02:	de bf       	out	0x3e, r29	; 62
     f04:	0f be       	out	0x3f, r0	; 63
     f06:	cd bf       	out	0x3d, r28	; 61
     f08:	cf 91       	pop	r28
     f0a:	df 91       	pop	r29
     f0c:	1f 91       	pop	r17
     f0e:	0f 91       	pop	r16
     f10:	ff 90       	pop	r15
     f12:	ef 90       	pop	r14
     f14:	df 90       	pop	r13
     f16:	cf 90       	pop	r12
     f18:	bf 90       	pop	r11
     f1a:	af 90       	pop	r10
     f1c:	9f 90       	pop	r9
     f1e:	8f 90       	pop	r8
     f20:	7f 90       	pop	r7
     f22:	6f 90       	pop	r6
     f24:	5f 90       	pop	r5
     f26:	4f 90       	pop	r4
     f28:	3f 90       	pop	r3
     f2a:	2f 90       	pop	r2
     f2c:	08 95       	ret

00000f2e <lcd_defchar_E>:
     f2e:	0f 93       	push	r16
     f30:	1f 93       	push	r17
     f32:	cf 93       	push	r28
     f34:	df 93       	push	r29
     f36:	8b 01       	movw	r16, r22
     f38:	90 e0       	ldi	r25, 0x00	; 0
     f3a:	87 70       	andi	r24, 0x07	; 7
     f3c:	90 70       	andi	r25, 0x00	; 0
     f3e:	08 96       	adiw	r24, 0x08	; 8
     f40:	88 0f       	add	r24, r24
     f42:	88 0f       	add	r24, r24
     f44:	88 0f       	add	r24, r24
     f46:	0e 94 7f 05 	call	0xafe	; 0xafe <lcd_write_cmd>
     f4a:	c0 e0       	ldi	r28, 0x00	; 0
     f4c:	d0 e0       	ldi	r29, 0x00	; 0
     f4e:	c8 01       	movw	r24, r16
     f50:	8c 0f       	add	r24, r28
     f52:	9d 1f       	adc	r25, r29
     f54:	0e 94 e1 16 	call	0x2dc2	; 0x2dc2 <__eerd_byte_m644p>
     f58:	0e 94 83 05 	call	0xb06	; 0xb06 <lcd_write_data>
     f5c:	21 96       	adiw	r28, 0x01	; 1
     f5e:	c8 30       	cpi	r28, 0x08	; 8
     f60:	d1 05       	cpc	r29, r1
     f62:	a9 f7       	brne	.-22     	; 0xf4e <lcd_defchar_E+0x20>
     f64:	df 91       	pop	r29
     f66:	cf 91       	pop	r28
     f68:	1f 91       	pop	r17
     f6a:	0f 91       	pop	r16
     f6c:	08 95       	ret

00000f6e <lcd_str_E>:
     f6e:	cf 93       	push	r28
     f70:	df 93       	push	r29
     f72:	ec 01       	movw	r28, r24
     f74:	21 96       	adiw	r28, 0x01	; 1
     f76:	0e 94 e1 16 	call	0x2dc2	; 0x2dc2 <__eerd_byte_m644p>
     f7a:	98 2f       	mov	r25, r24
     f7c:	81 50       	subi	r24, 0x01	; 1
     f7e:	8e 3f       	cpi	r24, 0xFE	; 254
     f80:	48 f4       	brcc	.+18     	; 0xf94 <lcd_str_E+0x26>
     f82:	8f 57       	subi	r24, 0x7F	; 127
     f84:	88 30       	cpi	r24, 0x08	; 8
     f86:	08 f4       	brcc	.+2      	; 0xf8a <lcd_str_E+0x1c>
     f88:	97 70       	andi	r25, 0x07	; 7
     f8a:	89 2f       	mov	r24, r25
     f8c:	0e 94 83 05 	call	0xb06	; 0xb06 <lcd_write_data>
     f90:	ce 01       	movw	r24, r28
     f92:	ef cf       	rjmp	.-34     	; 0xf72 <lcd_str_E+0x4>
     f94:	df 91       	pop	r29
     f96:	cf 91       	pop	r28
     f98:	08 95       	ret

00000f9a <lcd_hex>:
     f9a:	df 93       	push	r29
     f9c:	cf 93       	push	r28
     f9e:	cd b7       	in	r28, 0x3d	; 61
     fa0:	de b7       	in	r29, 0x3e	; 62
     fa2:	61 97       	sbiw	r28, 0x11	; 17
     fa4:	0f b6       	in	r0, 0x3f	; 63
     fa6:	f8 94       	cli
     fa8:	de bf       	out	0x3e, r29	; 62
     faa:	0f be       	out	0x3f, r0	; 63
     fac:	cd bf       	out	0x3d, r28	; 61
     fae:	be 01       	movw	r22, r28
     fb0:	6f 5f       	subi	r22, 0xFF	; 255
     fb2:	7f 4f       	sbci	r23, 0xFF	; 255
     fb4:	40 e1       	ldi	r20, 0x10	; 16
     fb6:	50 e0       	ldi	r21, 0x00	; 0
     fb8:	0e 94 c0 16 	call	0x2d80	; 0x2d80 <itoa>
     fbc:	0e 94 90 05 	call	0xb20	; 0xb20 <lcd_put_str>
     fc0:	61 96       	adiw	r28, 0x11	; 17
     fc2:	0f b6       	in	r0, 0x3f	; 63
     fc4:	f8 94       	cli
     fc6:	de bf       	out	0x3e, r29	; 62
     fc8:	0f be       	out	0x3f, r0	; 63
     fca:	cd bf       	out	0x3d, r28	; 61
     fcc:	cf 91       	pop	r28
     fce:	df 91       	pop	r29
     fd0:	08 95       	ret

00000fd2 <lcd_int>:
     fd2:	df 93       	push	r29
     fd4:	cf 93       	push	r28
     fd6:	cd b7       	in	r28, 0x3d	; 61
     fd8:	de b7       	in	r29, 0x3e	; 62
     fda:	61 97       	sbiw	r28, 0x11	; 17
     fdc:	0f b6       	in	r0, 0x3f	; 63
     fde:	f8 94       	cli
     fe0:	de bf       	out	0x3e, r29	; 62
     fe2:	0f be       	out	0x3f, r0	; 63
     fe4:	cd bf       	out	0x3d, r28	; 61
     fe6:	be 01       	movw	r22, r28
     fe8:	6f 5f       	subi	r22, 0xFF	; 255
     fea:	7f 4f       	sbci	r23, 0xFF	; 255
     fec:	4a e0       	ldi	r20, 0x0A	; 10
     fee:	50 e0       	ldi	r21, 0x00	; 0
     ff0:	0e 94 c0 16 	call	0x2d80	; 0x2d80 <itoa>
     ff4:	0e 94 90 05 	call	0xb20	; 0xb20 <lcd_put_str>
     ff8:	61 96       	adiw	r28, 0x11	; 17
     ffa:	0f b6       	in	r0, 0x3f	; 63
     ffc:	f8 94       	cli
     ffe:	de bf       	out	0x3e, r29	; 62
    1000:	0f be       	out	0x3f, r0	; 63
    1002:	cd bf       	out	0x3d, r28	; 61
    1004:	cf 91       	pop	r28
    1006:	df 91       	pop	r29
    1008:	08 95       	ret

0000100a <I2C_init>:
    100a:	ef 92       	push	r14
    100c:	ff 92       	push	r15
    100e:	1f 93       	push	r17
    1010:	9b 01       	movw	r18, r22
    1012:	ac 01       	movw	r20, r24
    1014:	98 eb       	ldi	r25, 0xB8	; 184
    1016:	e9 2e       	mov	r14, r25
    1018:	f1 2c       	mov	r15, r1
    101a:	f7 01       	movw	r30, r14
    101c:	10 81       	ld	r17, Z
    101e:	60 e0       	ldi	r22, 0x00	; 0
    1020:	74 e2       	ldi	r23, 0x24	; 36
    1022:	84 ef       	ldi	r24, 0xF4	; 244
    1024:	90 e0       	ldi	r25, 0x00	; 0
    1026:	0e 94 8a 16 	call	0x2d14	; 0x2d14 <__udivmodsi4>
    102a:	56 95       	lsr	r21
    102c:	47 95       	ror	r20
    102e:	37 95       	ror	r19
    1030:	27 95       	ror	r18
    1032:	20 51       	subi	r18, 0x10	; 16
    1034:	30 40       	sbci	r19, 0x00	; 0
    1036:	40 40       	sbci	r20, 0x00	; 0
    1038:	50 40       	sbci	r21, 0x00	; 0
    103a:	12 2b       	or	r17, r18
    103c:	f7 01       	movw	r30, r14
    103e:	10 83       	st	Z, r17
    1040:	e9 eb       	ldi	r30, 0xB9	; 185
    1042:	f0 e0       	ldi	r31, 0x00	; 0
    1044:	80 81       	ld	r24, Z
    1046:	80 83       	st	Z, r24
    1048:	1f 91       	pop	r17
    104a:	ff 90       	pop	r15
    104c:	ef 90       	pop	r14
    104e:	08 95       	ret

00001050 <I2C_start>:
    1050:	84 ea       	ldi	r24, 0xA4	; 164
    1052:	80 93 bc 00 	sts	0x00BC, r24
    1056:	80 91 bc 00 	lds	r24, 0x00BC
    105a:	87 ff       	sbrs	r24, 7
    105c:	fc cf       	rjmp	.-8      	; 0x1056 <I2C_start+0x6>
    105e:	08 95       	ret

00001060 <I2C_stop>:
    1060:	84 e9       	ldi	r24, 0x94	; 148
    1062:	80 93 bc 00 	sts	0x00BC, r24
    1066:	80 91 bc 00 	lds	r24, 0x00BC
    106a:	84 ff       	sbrs	r24, 4
    106c:	fc cf       	rjmp	.-8      	; 0x1066 <I2C_stop+0x6>
    106e:	08 95       	ret

00001070 <I2C_write>:
    1070:	80 93 bb 00 	sts	0x00BB, r24
    1074:	84 e8       	ldi	r24, 0x84	; 132
    1076:	80 93 bc 00 	sts	0x00BC, r24
    107a:	80 91 bc 00 	lds	r24, 0x00BC
    107e:	87 ff       	sbrs	r24, 7
    1080:	fc cf       	rjmp	.-8      	; 0x107a <I2C_write+0xa>
    1082:	08 95       	ret

00001084 <I2C_read>:
    1084:	82 95       	swap	r24
    1086:	88 0f       	add	r24, r24
    1088:	88 0f       	add	r24, r24
    108a:	80 7c       	andi	r24, 0xC0	; 192
    108c:	84 68       	ori	r24, 0x84	; 132
    108e:	80 93 bc 00 	sts	0x00BC, r24
    1092:	80 91 bc 00 	lds	r24, 0x00BC
    1096:	87 ff       	sbrs	r24, 7
    1098:	fc cf       	rjmp	.-8      	; 0x1092 <I2C_read+0xe>
    109a:	80 91 bb 00 	lds	r24, 0x00BB
    109e:	08 95       	ret

000010a0 <I2C_write_data>:
    10a0:	98 2f       	mov	r25, r24
    10a2:	f9 01       	movw	r30, r18
    10a4:	84 ea       	ldi	r24, 0xA4	; 164
    10a6:	80 93 bc 00 	sts	0x00BC, r24
    10aa:	80 91 bc 00 	lds	r24, 0x00BC
    10ae:	87 ff       	sbrs	r24, 7
    10b0:	fc cf       	rjmp	.-8      	; 0x10aa <I2C_write_data+0xa>
    10b2:	90 93 bb 00 	sts	0x00BB, r25
    10b6:	84 e8       	ldi	r24, 0x84	; 132
    10b8:	80 93 bc 00 	sts	0x00BC, r24
    10bc:	80 91 bc 00 	lds	r24, 0x00BC
    10c0:	87 ff       	sbrs	r24, 7
    10c2:	fc cf       	rjmp	.-8      	; 0x10bc <I2C_write_data+0x1c>
    10c4:	60 93 bb 00 	sts	0x00BB, r22
    10c8:	84 e8       	ldi	r24, 0x84	; 132
    10ca:	80 93 bc 00 	sts	0x00BC, r24
    10ce:	80 91 bc 00 	lds	r24, 0x00BC
    10d2:	87 ff       	sbrs	r24, 7
    10d4:	fc cf       	rjmp	.-8      	; 0x10ce <I2C_write_data+0x2e>
    10d6:	0c c0       	rjmp	.+24     	; 0x10f0 <I2C_write_data+0x50>
    10d8:	80 81       	ld	r24, Z
    10da:	80 93 bb 00 	sts	0x00BB, r24
    10de:	90 93 bc 00 	sts	0x00BC, r25
    10e2:	80 91 bc 00 	lds	r24, 0x00BC
    10e6:	87 ff       	sbrs	r24, 7
    10e8:	fc cf       	rjmp	.-8      	; 0x10e2 <I2C_write_data+0x42>
    10ea:	31 96       	adiw	r30, 0x01	; 1
    10ec:	41 50       	subi	r20, 0x01	; 1
    10ee:	01 c0       	rjmp	.+2      	; 0x10f2 <I2C_write_data+0x52>
    10f0:	94 e8       	ldi	r25, 0x84	; 132
    10f2:	44 23       	and	r20, r20
    10f4:	89 f7       	brne	.-30     	; 0x10d8 <I2C_write_data+0x38>
    10f6:	84 e9       	ldi	r24, 0x94	; 148
    10f8:	80 93 bc 00 	sts	0x00BC, r24
    10fc:	80 91 bc 00 	lds	r24, 0x00BC
    1100:	84 ff       	sbrs	r24, 4
    1102:	fc cf       	rjmp	.-8      	; 0x10fc <I2C_write_data+0x5c>
    1104:	08 95       	ret

00001106 <I2C_read_data>:
    1106:	98 2f       	mov	r25, r24
    1108:	f9 01       	movw	r30, r18
    110a:	84 ea       	ldi	r24, 0xA4	; 164
    110c:	80 93 bc 00 	sts	0x00BC, r24
    1110:	80 91 bc 00 	lds	r24, 0x00BC
    1114:	87 ff       	sbrs	r24, 7
    1116:	fc cf       	rjmp	.-8      	; 0x1110 <I2C_read_data+0xa>
    1118:	90 93 bb 00 	sts	0x00BB, r25
    111c:	84 e8       	ldi	r24, 0x84	; 132
    111e:	80 93 bc 00 	sts	0x00BC, r24
    1122:	80 91 bc 00 	lds	r24, 0x00BC
    1126:	87 ff       	sbrs	r24, 7
    1128:	fc cf       	rjmp	.-8      	; 0x1122 <I2C_read_data+0x1c>
    112a:	60 93 bb 00 	sts	0x00BB, r22
    112e:	84 e8       	ldi	r24, 0x84	; 132
    1130:	80 93 bc 00 	sts	0x00BC, r24
    1134:	80 91 bc 00 	lds	r24, 0x00BC
    1138:	87 ff       	sbrs	r24, 7
    113a:	fc cf       	rjmp	.-8      	; 0x1134 <I2C_read_data+0x2e>
    113c:	84 ea       	ldi	r24, 0xA4	; 164
    113e:	80 93 bc 00 	sts	0x00BC, r24
    1142:	80 91 bc 00 	lds	r24, 0x00BC
    1146:	87 ff       	sbrs	r24, 7
    1148:	fc cf       	rjmp	.-8      	; 0x1142 <I2C_read_data+0x3c>
    114a:	9f 5f       	subi	r25, 0xFF	; 255
    114c:	90 93 bb 00 	sts	0x00BB, r25
    1150:	84 e8       	ldi	r24, 0x84	; 132
    1152:	80 93 bc 00 	sts	0x00BC, r24
    1156:	80 91 bc 00 	lds	r24, 0x00BC
    115a:	87 ff       	sbrs	r24, 7
    115c:	fc cf       	rjmp	.-8      	; 0x1156 <I2C_read_data+0x50>
    115e:	15 c0       	rjmp	.+42     	; 0x118a <I2C_read_data+0x84>
    1160:	41 50       	subi	r20, 0x01	; 1
    1162:	80 e0       	ldi	r24, 0x00	; 0
    1164:	90 e0       	ldi	r25, 0x00	; 0
    1166:	11 f0       	breq	.+4      	; 0x116c <I2C_read_data+0x66>
    1168:	81 e0       	ldi	r24, 0x01	; 1
    116a:	90 e0       	ldi	r25, 0x00	; 0
    116c:	26 e0       	ldi	r18, 0x06	; 6
    116e:	88 0f       	add	r24, r24
    1170:	99 1f       	adc	r25, r25
    1172:	2a 95       	dec	r18
    1174:	e1 f7       	brne	.-8      	; 0x116e <I2C_read_data+0x68>
    1176:	84 68       	ori	r24, 0x84	; 132
    1178:	80 93 bc 00 	sts	0x00BC, r24
    117c:	80 91 bc 00 	lds	r24, 0x00BC
    1180:	87 ff       	sbrs	r24, 7
    1182:	fc cf       	rjmp	.-8      	; 0x117c <I2C_read_data+0x76>
    1184:	80 91 bb 00 	lds	r24, 0x00BB
    1188:	81 93       	st	Z+, r24
    118a:	44 23       	and	r20, r20
    118c:	49 f7       	brne	.-46     	; 0x1160 <I2C_read_data+0x5a>
    118e:	84 e9       	ldi	r24, 0x94	; 148
    1190:	80 93 bc 00 	sts	0x00BC, r24
    1194:	80 91 bc 00 	lds	r24, 0x00BC
    1198:	84 ff       	sbrs	r24, 4
    119a:	fc cf       	rjmp	.-8      	; 0x1194 <I2C_read_data+0x8e>
    119c:	08 95       	ret

0000119e <main>:
    119e:	0f 93       	push	r16
    11a0:	1f 93       	push	r17
    11a2:	10 92 d7 04 	sts	0x04D7, r1
    11a6:	8c ed       	ldi	r24, 0xDC	; 220
    11a8:	97 e0       	ldi	r25, 0x07	; 7
    11aa:	90 93 e6 04 	sts	0x04E6, r25
    11ae:	80 93 e5 04 	sts	0x04E5, r24
    11b2:	81 e0       	ldi	r24, 0x01	; 1
    11b4:	90 e0       	ldi	r25, 0x00	; 0
    11b6:	90 93 ee 04 	sts	0x04EE, r25
    11ba:	80 93 ed 04 	sts	0x04ED, r24
    11be:	90 93 ec 04 	sts	0x04EC, r25
    11c2:	80 93 eb 04 	sts	0x04EB, r24
    11c6:	24 9a       	sbi	0x04, 4	; 4
    11c8:	2c 98       	cbi	0x05, 4	; 5
    11ca:	0e 94 1d 04 	call	0x83a	; 0x83a <GPIO_Init>
    11ce:	60 ea       	ldi	r22, 0xA0	; 160
    11d0:	76 e8       	ldi	r23, 0x86	; 134
    11d2:	81 e0       	ldi	r24, 0x01	; 1
    11d4:	90 e0       	ldi	r25, 0x00	; 0
    11d6:	0e 94 05 08 	call	0x100a	; 0x100a <I2C_init>
    11da:	0e 94 10 06 	call	0xc20	; 0xc20 <lcd_init>
    11de:	0e 94 99 04 	call	0x932	; 0x932 <INT0_init>
    11e2:	0e 94 a1 04 	call	0x942	; 0x942 <TIMER0_init>
    11e6:	0e 94 a0 03 	call	0x740	; 0x740 <first_search_sensors>
    11ea:	78 94       	sei
    11ec:	88 ed       	ldi	r24, 0xD8	; 216
    11ee:	94 e0       	ldi	r25, 0x04	; 4
    11f0:	0e 94 63 0f 	call	0x1ec6	; 0x1ec6 <write_time_year>
    11f4:	80 e0       	ldi	r24, 0x00	; 0
    11f6:	60 e0       	ldi	r22, 0x00	; 0
    11f8:	0e 94 f0 05 	call	0xbe0	; 0xbe0 <lcd_locate>
    11fc:	10 e0       	ldi	r17, 0x00	; 0
    11fe:	00 e1       	ldi	r16, 0x10	; 16
    1200:	80 e8       	ldi	r24, 0x80	; 128
    1202:	0e 94 24 04 	call	0x848	; 0x848 <Read_Input_Switch>
    1206:	88 23       	and	r24, r24
    1208:	89 f0       	breq	.+34     	; 0x122c <main+0x8e>
    120a:	0e 94 88 0b 	call	0x1710	; 0x1710 <Menu_Glowne>
    120e:	8a 30       	cpi	r24, 0x0A	; 10
    1210:	39 f0       	breq	.+14     	; 0x1220 <main+0x82>
    1212:	8e 36       	cpi	r24, 0x6E	; 110
    1214:	41 f0       	breq	.+16     	; 0x1226 <main+0x88>
    1216:	84 30       	cpi	r24, 0x04	; 4
    1218:	49 f4       	brne	.+18     	; 0x122c <main+0x8e>
    121a:	0e 94 7a 09 	call	0x12f4	; 0x12f4 <show_version_firmware>
    121e:	06 c0       	rjmp	.+12     	; 0x122c <main+0x8e>
    1220:	0e 94 aa 10 	call	0x2154	; 0x2154 <set_time>
    1224:	03 c0       	rjmp	.+6      	; 0x122c <main+0x8e>
    1226:	81 e0       	ldi	r24, 0x01	; 1
    1228:	0e 94 60 02 	call	0x4c0	; 0x4c0 <set_alarm>
    122c:	80 91 d7 04 	lds	r24, 0x04D7
    1230:	6a e0       	ldi	r22, 0x0A	; 10
    1232:	0e 94 6b 16 	call	0x2cd6	; 0x2cd6 <__udivmodqi4>
    1236:	94 30       	cpi	r25, 0x04	; 4
    1238:	40 f4       	brcc	.+16     	; 0x124a <main+0xac>
    123a:	0e 94 fa 03 	call	0x7f4	; 0x7f4 <read_temp_from_sensors>
    123e:	0e 94 fa 03 	call	0x7f4	; 0x7f4 <read_temp_from_sensors>
    1242:	0e 94 f8 05 	call	0xbf0	; 0xbf0 <lcd_cls>
    1246:	12 e0       	ldi	r17, 0x02	; 2
    1248:	23 c0       	rjmp	.+70     	; 0x1290 <main+0xf2>
    124a:	80 91 d7 04 	lds	r24, 0x04D7
    124e:	6a e0       	ldi	r22, 0x0A	; 10
    1250:	0e 94 6b 16 	call	0x2cd6	; 0x2cd6 <__udivmodqi4>
    1254:	94 30       	cpi	r25, 0x04	; 4
    1256:	70 f0       	brcs	.+28     	; 0x1274 <main+0xd6>
    1258:	80 91 d7 04 	lds	r24, 0x04D7
    125c:	0e 94 6b 16 	call	0x2cd6	; 0x2cd6 <__udivmodqi4>
    1260:	97 30       	cpi	r25, 0x07	; 7
    1262:	40 f4       	brcc	.+16     	; 0x1274 <main+0xd6>
    1264:	11 30       	cpi	r17, 0x01	; 1
    1266:	19 f4       	brne	.+6      	; 0x126e <main+0xd0>
    1268:	0e 94 f8 05 	call	0xbf0	; 0xbf0 <lcd_cls>
    126c:	12 e0       	ldi	r17, 0x02	; 2
    126e:	0e 94 90 0f 	call	0x1f20	; 0x1f20 <show_time>
    1272:	0e c0       	rjmp	.+28     	; 0x1290 <main+0xf2>
    1274:	80 91 d7 04 	lds	r24, 0x04D7
    1278:	6a e0       	ldi	r22, 0x0A	; 10
    127a:	0e 94 6b 16 	call	0x2cd6	; 0x2cd6 <__udivmodqi4>
    127e:	97 30       	cpi	r25, 0x07	; 7
    1280:	38 f0       	brcs	.+14     	; 0x1290 <main+0xf2>
    1282:	12 30       	cpi	r17, 0x02	; 2
    1284:	19 f4       	brne	.+6      	; 0x128c <main+0xee>
    1286:	0e 94 f8 05 	call	0xbf0	; 0xbf0 <lcd_cls>
    128a:	10 e0       	ldi	r17, 0x00	; 0
    128c:	0e 94 da 0e 	call	0x1db4	; 0x1db4 <show_day_week>
    1290:	80 91 59 01 	lds	r24, 0x0159
    1294:	88 23       	and	r24, r24
    1296:	29 f0       	breq	.+10     	; 0x12a2 <main+0x104>
    1298:	85 b1       	in	r24, 0x05	; 5
    129a:	80 27       	eor	r24, r16
    129c:	85 b9       	out	0x05, r24	; 5
    129e:	10 92 59 01 	sts	0x0159, r1
    12a2:	8b e1       	ldi	r24, 0x1B	; 27
    12a4:	90 e0       	ldi	r25, 0x00	; 0
    12a6:	6e e1       	ldi	r22, 0x1E	; 30
    12a8:	70 e0       	ldi	r23, 0x00	; 0
    12aa:	41 e0       	ldi	r20, 0x01	; 1
    12ac:	0e 94 6e 03 	call	0x6dc	; 0x6dc <alarm_from_sensor1>
    12b0:	88 23       	and	r24, r24
    12b2:	09 f4       	brne	.+2      	; 0x12b6 <main+0x118>
    12b4:	a5 cf       	rjmp	.-182    	; 0x1200 <main+0x62>
    12b6:	80 e0       	ldi	r24, 0x00	; 0
    12b8:	6f e0       	ldi	r22, 0x0F	; 15
    12ba:	0e 94 f0 05 	call	0xbe0	; 0xbe0 <lcd_locate>
    12be:	85 e6       	ldi	r24, 0x65	; 101
    12c0:	91 e0       	ldi	r25, 0x01	; 1
    12c2:	0e 94 90 05 	call	0xb20	; 0xb20 <lcd_put_str>
    12c6:	9c cf       	rjmp	.-200    	; 0x1200 <main+0x62>

000012c8 <liczba_1_podmenu>:
    12c8:	81 30       	cpi	r24, 0x01	; 1
    12ca:	91 05       	cpc	r25, r1
    12cc:	31 f0       	breq	.+12     	; 0x12da <liczba_1_podmenu+0x12>
    12ce:	82 30       	cpi	r24, 0x02	; 2
    12d0:	91 05       	cpc	r25, r1
    12d2:	49 f0       	breq	.+18     	; 0x12e6 <liczba_1_podmenu+0x1e>
    12d4:	89 2b       	or	r24, r25
    12d6:	21 f0       	breq	.+8      	; 0x12e0 <liczba_1_podmenu+0x18>
    12d8:	09 c0       	rjmp	.+18     	; 0x12ec <liczba_1_podmenu+0x24>
    12da:	27 e0       	ldi	r18, 0x07	; 7
    12dc:	30 e0       	ldi	r19, 0x00	; 0
    12de:	08 c0       	rjmp	.+16     	; 0x12f0 <liczba_1_podmenu+0x28>
    12e0:	23 e0       	ldi	r18, 0x03	; 3
    12e2:	30 e0       	ldi	r19, 0x00	; 0
    12e4:	05 c0       	rjmp	.+10     	; 0x12f0 <liczba_1_podmenu+0x28>
    12e6:	22 e0       	ldi	r18, 0x02	; 2
    12e8:	30 e0       	ldi	r19, 0x00	; 0
    12ea:	02 c0       	rjmp	.+4      	; 0x12f0 <liczba_1_podmenu+0x28>
    12ec:	2f ef       	ldi	r18, 0xFF	; 255
    12ee:	3f ef       	ldi	r19, 0xFF	; 255
    12f0:	c9 01       	movw	r24, r18
    12f2:	08 95       	ret

000012f4 <show_version_firmware>:
    12f4:	0e 94 f8 05 	call	0xbf0	; 0xbf0 <lcd_cls>
    12f8:	80 e0       	ldi	r24, 0x00	; 0
    12fa:	60 e0       	ldi	r22, 0x00	; 0
    12fc:	0e 94 f0 05 	call	0xbe0	; 0xbe0 <lcd_locate>
    1300:	84 ed       	ldi	r24, 0xD4	; 212
    1302:	90 e0       	ldi	r25, 0x00	; 0
    1304:	0e 94 a2 05 	call	0xb44	; 0xb44 <lcd_str_P>
    1308:	81 e0       	ldi	r24, 0x01	; 1
    130a:	60 e0       	ldi	r22, 0x00	; 0
    130c:	0e 94 f0 05 	call	0xbe0	; 0xbe0 <lcd_locate>
    1310:	85 ef       	ldi	r24, 0xF5	; 245
    1312:	90 e0       	ldi	r25, 0x00	; 0
    1314:	0e 94 a2 05 	call	0xb44	; 0xb44 <lcd_str_P>
    1318:	82 e0       	ldi	r24, 0x02	; 2
    131a:	90 e0       	ldi	r25, 0x00	; 0
    131c:	0e 94 bb 04 	call	0x976	; 0x976 <Delay_sec>
    1320:	0e 94 f8 05 	call	0xbf0	; 0xbf0 <lcd_cls>
    1324:	08 95       	ret

00001326 <Lcd_show_Sub_Menu_2>:
    1326:	df 92       	push	r13
    1328:	ef 92       	push	r14
    132a:	ff 92       	push	r15
    132c:	0f 93       	push	r16
    132e:	1f 93       	push	r17
    1330:	cf 93       	push	r28
    1332:	df 93       	push	r29
    1334:	d4 2e       	mov	r13, r20
    1336:	90 e0       	ldi	r25, 0x00	; 0
    1338:	24 e1       	ldi	r18, 0x14	; 20
    133a:	30 e0       	ldi	r19, 0x00	; 0
    133c:	82 9f       	mul	r24, r18
    133e:	f0 01       	movw	r30, r0
    1340:	83 9f       	mul	r24, r19
    1342:	f0 0d       	add	r31, r0
    1344:	92 9f       	mul	r25, r18
    1346:	f0 0d       	add	r31, r0
    1348:	11 24       	eor	r1, r1
    134a:	ea 55       	subi	r30, 0x5A	; 90
    134c:	fd 4f       	sbci	r31, 0xFD	; 253
    134e:	84 e1       	ldi	r24, 0x14	; 20
    1350:	68 9f       	mul	r22, r24
    1352:	b0 01       	movw	r22, r0
    1354:	11 24       	eor	r1, r1
    1356:	01 89       	ldd	r16, Z+17	; 0x11
    1358:	12 89       	ldd	r17, Z+18	; 0x12
    135a:	06 0f       	add	r16, r22
    135c:	17 1f       	adc	r17, r23
    135e:	f8 01       	movw	r30, r16
    1360:	e1 88       	ldd	r14, Z+17	; 0x11
    1362:	f2 88       	ldd	r15, Z+18	; 0x12
    1364:	0e 94 f8 05 	call	0xbf0	; 0xbf0 <lcd_cls>
    1368:	80 e0       	ldi	r24, 0x00	; 0
    136a:	60 e0       	ldi	r22, 0x00	; 0
    136c:	0e 94 f0 05 	call	0xbe0	; 0xbe0 <lcd_locate>
    1370:	87 e6       	ldi	r24, 0x67	; 103
    1372:	91 e0       	ldi	r25, 0x01	; 1
    1374:	0e 94 90 05 	call	0xb20	; 0xb20 <lcd_put_str>
    1378:	c8 01       	movw	r24, r16
    137a:	0e 94 90 05 	call	0xb20	; 0xb20 <lcd_put_str>
    137e:	f7 01       	movw	r30, r14
    1380:	80 89       	ldd	r24, Z+16	; 0x10
    1382:	60 e0       	ldi	r22, 0x00	; 0
    1384:	0e 94 f0 05 	call	0xbe0	; 0xbe0 <lcd_locate>
    1388:	8b e6       	ldi	r24, 0x6B	; 107
    138a:	91 e0       	ldi	r25, 0x01	; 1
    138c:	0e 94 90 05 	call	0xb20	; 0xb20 <lcd_put_str>
    1390:	82 e1       	ldi	r24, 0x12	; 18
    1392:	d8 9e       	mul	r13, r24
    1394:	e0 01       	movw	r28, r0
    1396:	11 24       	eor	r1, r1
    1398:	ce 0d       	add	r28, r14
    139a:	df 1d       	adc	r29, r15
    139c:	89 89       	ldd	r24, Y+17	; 0x11
    139e:	6a e0       	ldi	r22, 0x0A	; 10
    13a0:	0e 94 6b 16 	call	0x2cd6	; 0x2cd6 <__udivmodqi4>
    13a4:	89 2f       	mov	r24, r25
    13a6:	90 e0       	ldi	r25, 0x00	; 0
    13a8:	01 96       	adiw	r24, 0x01	; 1
    13aa:	0e 94 e9 07 	call	0xfd2	; 0xfd2 <lcd_int>
    13ae:	8d e6       	ldi	r24, 0x6D	; 109
    13b0:	91 e0       	ldi	r25, 0x01	; 1
    13b2:	0e 94 90 05 	call	0xb20	; 0xb20 <lcd_put_str>
    13b6:	f7 01       	movw	r30, r14
    13b8:	80 89       	ldd	r24, Z+16	; 0x10
    13ba:	64 e0       	ldi	r22, 0x04	; 4
    13bc:	0e 94 f0 05 	call	0xbe0	; 0xbe0 <lcd_locate>
    13c0:	ce 01       	movw	r24, r28
    13c2:	0e 94 90 05 	call	0xb20	; 0xb20 <lcd_put_str>
    13c6:	df 91       	pop	r29
    13c8:	cf 91       	pop	r28
    13ca:	1f 91       	pop	r17
    13cc:	0f 91       	pop	r16
    13ce:	ff 90       	pop	r15
    13d0:	ef 90       	pop	r14
    13d2:	df 90       	pop	r13
    13d4:	08 95       	ret

000013d6 <Pod_Menu2>:
    13d6:	0f 93       	push	r16
    13d8:	1f 93       	push	r17
    13da:	cf 93       	push	r28
    13dc:	df 93       	push	r29
    13de:	80 91 6f 03 	lds	r24, 0x036F
    13e2:	90 91 70 03 	lds	r25, 0x0370
    13e6:	60 91 6d 03 	lds	r22, 0x036D
    13ea:	70 91 6e 03 	lds	r23, 0x036E
    13ee:	24 e1       	ldi	r18, 0x14	; 20
    13f0:	30 e0       	ldi	r19, 0x00	; 0
    13f2:	82 9f       	mul	r24, r18
    13f4:	f0 01       	movw	r30, r0
    13f6:	83 9f       	mul	r24, r19
    13f8:	f0 0d       	add	r31, r0
    13fa:	92 9f       	mul	r25, r18
    13fc:	f0 0d       	add	r31, r0
    13fe:	11 24       	eor	r1, r1
    1400:	ea 55       	subi	r30, 0x5A	; 90
    1402:	fd 4f       	sbci	r31, 0xFD	; 253
    1404:	a9 01       	movw	r20, r18
    1406:	64 9f       	mul	r22, r20
    1408:	90 01       	movw	r18, r0
    140a:	65 9f       	mul	r22, r21
    140c:	30 0d       	add	r19, r0
    140e:	74 9f       	mul	r23, r20
    1410:	30 0d       	add	r19, r0
    1412:	11 24       	eor	r1, r1
    1414:	01 88       	ldd	r0, Z+17	; 0x11
    1416:	f2 89       	ldd	r31, Z+18	; 0x12
    1418:	e0 2d       	mov	r30, r0
    141a:	e2 0f       	add	r30, r18
    141c:	f3 1f       	adc	r31, r19
    141e:	c1 89       	ldd	r28, Z+17	; 0x11
    1420:	d2 89       	ldd	r29, Z+18	; 0x12
    1422:	40 91 71 03 	lds	r20, 0x0371
    1426:	0e 94 93 09 	call	0x1326	; 0x1326 <Lcd_show_Sub_Menu_2>
    142a:	02 e0       	ldi	r16, 0x02	; 2
    142c:	10 e0       	ldi	r17, 0x00	; 0
    142e:	0e 94 3d 04 	call	0x87a	; 0x87a <Read_Pin_Input_Switch>
    1432:	80 32       	cpi	r24, 0x20	; 32
    1434:	51 f0       	breq	.+20     	; 0x144a <Pod_Menu2+0x74>
    1436:	81 32       	cpi	r24, 0x21	; 33
    1438:	18 f4       	brcc	.+6      	; 0x1440 <Pod_Menu2+0x6a>
    143a:	88 30       	cpi	r24, 0x08	; 8
    143c:	c1 f7       	brne	.-16     	; 0x142e <Pod_Menu2+0x58>
    143e:	31 c0       	rjmp	.+98     	; 0x14a2 <Pod_Menu2+0xcc>
    1440:	80 34       	cpi	r24, 0x40	; 64
    1442:	99 f0       	breq	.+38     	; 0x146a <Pod_Menu2+0x94>
    1444:	80 38       	cpi	r24, 0x80	; 128
    1446:	99 f7       	brne	.-26     	; 0x142e <Pod_Menu2+0x58>
    1448:	34 c0       	rjmp	.+104    	; 0x14b2 <Pod_Menu2+0xdc>
    144a:	80 91 71 03 	lds	r24, 0x0371
    144e:	90 91 72 03 	lds	r25, 0x0372
    1452:	01 96       	adiw	r24, 0x01	; 1
    1454:	90 93 72 03 	sts	0x0372, r25
    1458:	80 93 71 03 	sts	0x0371, r24
    145c:	03 97       	sbiw	r24, 0x03	; 3
    145e:	a4 f0       	brlt	.+40     	; 0x1488 <Pod_Menu2+0xb2>
    1460:	10 92 72 03 	sts	0x0372, r1
    1464:	10 92 71 03 	sts	0x0371, r1
    1468:	0f c0       	rjmp	.+30     	; 0x1488 <Pod_Menu2+0xb2>
    146a:	80 91 71 03 	lds	r24, 0x0371
    146e:	90 91 72 03 	lds	r25, 0x0372
    1472:	01 97       	sbiw	r24, 0x01	; 1
    1474:	90 93 72 03 	sts	0x0372, r25
    1478:	80 93 71 03 	sts	0x0371, r24
    147c:	97 ff       	sbrs	r25, 7
    147e:	04 c0       	rjmp	.+8      	; 0x1488 <Pod_Menu2+0xb2>
    1480:	10 93 72 03 	sts	0x0372, r17
    1484:	00 93 71 03 	sts	0x0371, r16
    1488:	80 91 6f 03 	lds	r24, 0x036F
    148c:	60 91 6d 03 	lds	r22, 0x036D
    1490:	40 91 71 03 	lds	r20, 0x0371
    1494:	0e 94 93 09 	call	0x1326	; 0x1326 <Lcd_show_Sub_Menu_2>
    1498:	84 e0       	ldi	r24, 0x04	; 4
    149a:	90 e0       	ldi	r25, 0x00	; 0
    149c:	0e 94 d1 04 	call	0x9a2	; 0x9a2 <Delay_100ms>
    14a0:	c6 cf       	rjmp	.-116    	; 0x142e <Pod_Menu2+0x58>
    14a2:	84 e0       	ldi	r24, 0x04	; 4
    14a4:	90 e0       	ldi	r25, 0x00	; 0
    14a6:	0e 94 d1 04 	call	0x9a2	; 0x9a2 <Delay_100ms>
    14aa:	0e 94 f8 05 	call	0xbf0	; 0xbf0 <lcd_cls>
    14ae:	80 e0       	ldi	r24, 0x00	; 0
    14b0:	15 c0       	rjmp	.+42     	; 0x14dc <Pod_Menu2+0x106>
    14b2:	84 e0       	ldi	r24, 0x04	; 4
    14b4:	90 e0       	ldi	r25, 0x00	; 0
    14b6:	0e 94 d1 04 	call	0x9a2	; 0x9a2 <Delay_100ms>
    14ba:	80 91 71 03 	lds	r24, 0x0371
    14be:	90 91 72 03 	lds	r25, 0x0372
    14c2:	88 0f       	add	r24, r24
    14c4:	99 1f       	adc	r25, r25
    14c6:	9c 01       	movw	r18, r24
    14c8:	43 e0       	ldi	r20, 0x03	; 3
    14ca:	22 0f       	add	r18, r18
    14cc:	33 1f       	adc	r19, r19
    14ce:	4a 95       	dec	r20
    14d0:	e1 f7       	brne	.-8      	; 0x14ca <Pod_Menu2+0xf4>
    14d2:	82 0f       	add	r24, r18
    14d4:	93 1f       	adc	r25, r19
    14d6:	c8 0f       	add	r28, r24
    14d8:	d9 1f       	adc	r29, r25
    14da:	89 89       	ldd	r24, Y+17	; 0x11
    14dc:	df 91       	pop	r29
    14de:	cf 91       	pop	r28
    14e0:	1f 91       	pop	r17
    14e2:	0f 91       	pop	r16
    14e4:	08 95       	ret

000014e6 <Lcd_show_Sub_Menu_1>:
    14e6:	cf 92       	push	r12
    14e8:	df 92       	push	r13
    14ea:	ef 92       	push	r14
    14ec:	ff 92       	push	r15
    14ee:	0f 93       	push	r16
    14f0:	1f 93       	push	r17
    14f2:	cf 93       	push	r28
    14f4:	df 93       	push	r29
    14f6:	c6 2e       	mov	r12, r22
    14f8:	64 e1       	ldi	r22, 0x14	; 20
    14fa:	d6 2e       	mov	r13, r22
    14fc:	8d 9d       	mul	r24, r13
    14fe:	80 01       	movw	r16, r0
    1500:	11 24       	eor	r1, r1
    1502:	0a 55       	subi	r16, 0x5A	; 90
    1504:	1d 4f       	sbci	r17, 0xFD	; 253
    1506:	f8 01       	movw	r30, r16
    1508:	e1 88       	ldd	r14, Z+17	; 0x11
    150a:	f2 88       	ldd	r15, Z+18	; 0x12
    150c:	0e 94 f8 05 	call	0xbf0	; 0xbf0 <lcd_cls>
    1510:	80 e0       	ldi	r24, 0x00	; 0
    1512:	60 e0       	ldi	r22, 0x00	; 0
    1514:	0e 94 f0 05 	call	0xbe0	; 0xbe0 <lcd_locate>
    1518:	87 e6       	ldi	r24, 0x67	; 103
    151a:	91 e0       	ldi	r25, 0x01	; 1
    151c:	0e 94 90 05 	call	0xb20	; 0xb20 <lcd_put_str>
    1520:	c8 01       	movw	r24, r16
    1522:	0e 94 90 05 	call	0xb20	; 0xb20 <lcd_put_str>
    1526:	f7 01       	movw	r30, r14
    1528:	80 89       	ldd	r24, Z+16	; 0x10
    152a:	60 e0       	ldi	r22, 0x00	; 0
    152c:	0e 94 f0 05 	call	0xbe0	; 0xbe0 <lcd_locate>
    1530:	8b e6       	ldi	r24, 0x6B	; 107
    1532:	91 e0       	ldi	r25, 0x01	; 1
    1534:	0e 94 90 05 	call	0xb20	; 0xb20 <lcd_put_str>
    1538:	cd 9c       	mul	r12, r13
    153a:	e0 01       	movw	r28, r0
    153c:	11 24       	eor	r1, r1
    153e:	ce 0d       	add	r28, r14
    1540:	df 1d       	adc	r29, r15
    1542:	8b 89       	ldd	r24, Y+19	; 0x13
    1544:	6a e0       	ldi	r22, 0x0A	; 10
    1546:	0e 94 6b 16 	call	0x2cd6	; 0x2cd6 <__udivmodqi4>
    154a:	89 2f       	mov	r24, r25
    154c:	90 e0       	ldi	r25, 0x00	; 0
    154e:	01 96       	adiw	r24, 0x01	; 1
    1550:	0e 94 e9 07 	call	0xfd2	; 0xfd2 <lcd_int>
    1554:	8d e6       	ldi	r24, 0x6D	; 109
    1556:	91 e0       	ldi	r25, 0x01	; 1
    1558:	0e 94 90 05 	call	0xb20	; 0xb20 <lcd_put_str>
    155c:	f7 01       	movw	r30, r14
    155e:	80 89       	ldd	r24, Z+16	; 0x10
    1560:	64 e0       	ldi	r22, 0x04	; 4
    1562:	0e 94 f0 05 	call	0xbe0	; 0xbe0 <lcd_locate>
    1566:	ce 01       	movw	r24, r28
    1568:	0e 94 90 05 	call	0xb20	; 0xb20 <lcd_put_str>
    156c:	df 91       	pop	r29
    156e:	cf 91       	pop	r28
    1570:	1f 91       	pop	r17
    1572:	0f 91       	pop	r16
    1574:	ff 90       	pop	r15
    1576:	ef 90       	pop	r14
    1578:	df 90       	pop	r13
    157a:	cf 90       	pop	r12
    157c:	08 95       	ret

0000157e <Pod_Menu1>:
    157e:	cf 92       	push	r12
    1580:	df 92       	push	r13
    1582:	ff 92       	push	r15
    1584:	0f 93       	push	r16
    1586:	1f 93       	push	r17
    1588:	cf 93       	push	r28
    158a:	df 93       	push	r29
    158c:	80 91 6f 03 	lds	r24, 0x036F
    1590:	90 91 70 03 	lds	r25, 0x0370
    1594:	24 e1       	ldi	r18, 0x14	; 20
    1596:	30 e0       	ldi	r19, 0x00	; 0
    1598:	82 9f       	mul	r24, r18
    159a:	f0 01       	movw	r30, r0
    159c:	83 9f       	mul	r24, r19
    159e:	f0 0d       	add	r31, r0
    15a0:	92 9f       	mul	r25, r18
    15a2:	f0 0d       	add	r31, r0
    15a4:	11 24       	eor	r1, r1
    15a6:	ea 55       	subi	r30, 0x5A	; 90
    15a8:	fd 4f       	sbci	r31, 0xFD	; 253
    15aa:	c1 89       	ldd	r28, Z+17	; 0x11
    15ac:	d2 89       	ldd	r29, Z+18	; 0x12
    15ae:	60 91 6d 03 	lds	r22, 0x036D
    15b2:	0e 94 73 0a 	call	0x14e6	; 0x14e6 <Lcd_show_Sub_Menu_1>
    15b6:	74 e1       	ldi	r23, 0x14	; 20
    15b8:	c7 2e       	mov	r12, r23
    15ba:	d1 2c       	mov	r13, r1
    15bc:	0e 94 3d 04 	call	0x87a	; 0x87a <Read_Pin_Input_Switch>
    15c0:	80 32       	cpi	r24, 0x20	; 32
    15c2:	51 f0       	breq	.+20     	; 0x15d8 <Pod_Menu1+0x5a>
    15c4:	81 32       	cpi	r24, 0x21	; 33
    15c6:	18 f4       	brcc	.+6      	; 0x15ce <Pod_Menu1+0x50>
    15c8:	88 30       	cpi	r24, 0x08	; 8
    15ca:	c1 f7       	brne	.-16     	; 0x15bc <Pod_Menu1+0x3e>
    15cc:	40 c0       	rjmp	.+128    	; 0x164e <Pod_Menu1+0xd0>
    15ce:	80 34       	cpi	r24, 0x40	; 64
    15d0:	e9 f0       	breq	.+58     	; 0x160c <Pod_Menu1+0x8e>
    15d2:	80 38       	cpi	r24, 0x80	; 128
    15d4:	99 f7       	brne	.-26     	; 0x15bc <Pod_Menu1+0x3e>
    15d6:	41 c0       	rjmp	.+130    	; 0x165a <Pod_Menu1+0xdc>
    15d8:	00 91 6d 03 	lds	r16, 0x036D
    15dc:	10 91 6e 03 	lds	r17, 0x036E
    15e0:	0f 5f       	subi	r16, 0xFF	; 255
    15e2:	1f 4f       	sbci	r17, 0xFF	; 255
    15e4:	10 93 6e 03 	sts	0x036E, r17
    15e8:	00 93 6d 03 	sts	0x036D, r16
    15ec:	f0 90 6f 03 	lds	r15, 0x036F
    15f0:	8f 2d       	mov	r24, r15
    15f2:	90 91 70 03 	lds	r25, 0x0370
    15f6:	0e 94 64 09 	call	0x12c8	; 0x12c8 <liczba_1_podmenu>
    15fa:	08 17       	cp	r16, r24
    15fc:	19 07       	cpc	r17, r25
    15fe:	24 f0       	brlt	.+8      	; 0x1608 <Pod_Menu1+0x8a>
    1600:	10 92 6e 03 	sts	0x036E, r1
    1604:	10 92 6d 03 	sts	0x036D, r1
    1608:	8f 2d       	mov	r24, r15
    160a:	18 c0       	rjmp	.+48     	; 0x163c <Pod_Menu1+0xbe>
    160c:	80 91 6d 03 	lds	r24, 0x036D
    1610:	90 91 6e 03 	lds	r25, 0x036E
    1614:	01 97       	sbiw	r24, 0x01	; 1
    1616:	90 93 6e 03 	sts	0x036E, r25
    161a:	80 93 6d 03 	sts	0x036D, r24
    161e:	97 ff       	sbrs	r25, 7
    1620:	0b c0       	rjmp	.+22     	; 0x1638 <Pod_Menu1+0xba>
    1622:	80 91 6f 03 	lds	r24, 0x036F
    1626:	90 91 70 03 	lds	r25, 0x0370
    162a:	0e 94 64 09 	call	0x12c8	; 0x12c8 <liczba_1_podmenu>
    162e:	01 97       	sbiw	r24, 0x01	; 1
    1630:	90 93 6e 03 	sts	0x036E, r25
    1634:	80 93 6d 03 	sts	0x036D, r24
    1638:	80 91 6f 03 	lds	r24, 0x036F
    163c:	60 91 6d 03 	lds	r22, 0x036D
    1640:	0e 94 73 0a 	call	0x14e6	; 0x14e6 <Lcd_show_Sub_Menu_1>
    1644:	84 e0       	ldi	r24, 0x04	; 4
    1646:	90 e0       	ldi	r25, 0x00	; 0
    1648:	0e 94 d1 04 	call	0x9a2	; 0x9a2 <Delay_100ms>
    164c:	b7 cf       	rjmp	.-146    	; 0x15bc <Pod_Menu1+0x3e>
    164e:	84 e0       	ldi	r24, 0x04	; 4
    1650:	90 e0       	ldi	r25, 0x00	; 0
    1652:	0e 94 d1 04 	call	0x9a2	; 0x9a2 <Delay_100ms>
    1656:	00 e0       	ldi	r16, 0x00	; 0
    1658:	1f c0       	rjmp	.+62     	; 0x1698 <Pod_Menu1+0x11a>
    165a:	84 e0       	ldi	r24, 0x04	; 4
    165c:	90 e0       	ldi	r25, 0x00	; 0
    165e:	0e 94 d1 04 	call	0x9a2	; 0x9a2 <Delay_100ms>
    1662:	80 91 6d 03 	lds	r24, 0x036D
    1666:	90 91 6e 03 	lds	r25, 0x036E
    166a:	8c 9d       	mul	r24, r12
    166c:	f0 01       	movw	r30, r0
    166e:	8d 9d       	mul	r24, r13
    1670:	f0 0d       	add	r31, r0
    1672:	9c 9d       	mul	r25, r12
    1674:	f0 0d       	add	r31, r0
    1676:	11 24       	eor	r1, r1
    1678:	ec 0f       	add	r30, r28
    167a:	fd 1f       	adc	r31, r29
    167c:	81 89       	ldd	r24, Z+17	; 0x11
    167e:	92 89       	ldd	r25, Z+18	; 0x12
    1680:	89 2b       	or	r24, r25
    1682:	49 f0       	breq	.+18     	; 0x1696 <Pod_Menu1+0x118>
    1684:	0e 94 eb 09 	call	0x13d6	; 0x13d6 <Pod_Menu2>
    1688:	08 2f       	mov	r16, r24
    168a:	88 23       	and	r24, r24
    168c:	09 f4       	brne	.+2      	; 0x1690 <Pod_Menu1+0x112>
    168e:	96 cf       	rjmp	.-212    	; 0x15bc <Pod_Menu1+0x3e>
    1690:	0e 94 f8 05 	call	0xbf0	; 0xbf0 <lcd_cls>
    1694:	01 c0       	rjmp	.+2      	; 0x1698 <Pod_Menu1+0x11a>
    1696:	03 89       	ldd	r16, Z+19	; 0x13
    1698:	80 2f       	mov	r24, r16
    169a:	df 91       	pop	r29
    169c:	cf 91       	pop	r28
    169e:	1f 91       	pop	r17
    16a0:	0f 91       	pop	r16
    16a2:	ff 90       	pop	r15
    16a4:	df 90       	pop	r13
    16a6:	cf 90       	pop	r12
    16a8:	08 95       	ret

000016aa <Lcd_show_Menu_Glowne>:
    16aa:	0f 93       	push	r16
    16ac:	1f 93       	push	r17
    16ae:	18 2f       	mov	r17, r24
    16b0:	84 30       	cpi	r24, 0x04	; 4
    16b2:	08 f0       	brcs	.+2      	; 0x16b6 <Lcd_show_Menu_Glowne+0xc>
    16b4:	10 e0       	ldi	r17, 0x00	; 0
    16b6:	0e 94 f8 05 	call	0xbf0	; 0xbf0 <lcd_cls>
    16ba:	80 e0       	ldi	r24, 0x00	; 0
    16bc:	60 e0       	ldi	r22, 0x00	; 0
    16be:	0e 94 f0 05 	call	0xbe0	; 0xbe0 <lcd_locate>
    16c2:	8f e6       	ldi	r24, 0x6F	; 111
    16c4:	91 e0       	ldi	r25, 0x01	; 1
    16c6:	0e 94 90 05 	call	0xb20	; 0xb20 <lcd_put_str>
    16ca:	80 91 b6 02 	lds	r24, 0x02B6
    16ce:	60 e0       	ldi	r22, 0x00	; 0
    16d0:	0e 94 f0 05 	call	0xbe0	; 0xbe0 <lcd_locate>
    16d4:	8b e6       	ldi	r24, 0x6B	; 107
    16d6:	91 e0       	ldi	r25, 0x01	; 1
    16d8:	0e 94 90 05 	call	0xb20	; 0xb20 <lcd_put_str>
    16dc:	04 e1       	ldi	r16, 0x14	; 20
    16de:	10 9f       	mul	r17, r16
    16e0:	80 01       	movw	r16, r0
    16e2:	11 24       	eor	r1, r1
    16e4:	0a 55       	subi	r16, 0x5A	; 90
    16e6:	1d 4f       	sbci	r17, 0xFD	; 253
    16e8:	f8 01       	movw	r30, r16
    16ea:	83 89       	ldd	r24, Z+19	; 0x13
    16ec:	90 e0       	ldi	r25, 0x00	; 0
    16ee:	0e 94 e9 07 	call	0xfd2	; 0xfd2 <lcd_int>
    16f2:	8d e6       	ldi	r24, 0x6D	; 109
    16f4:	91 e0       	ldi	r25, 0x01	; 1
    16f6:	0e 94 90 05 	call	0xb20	; 0xb20 <lcd_put_str>
    16fa:	80 91 b6 02 	lds	r24, 0x02B6
    16fe:	64 e0       	ldi	r22, 0x04	; 4
    1700:	0e 94 f0 05 	call	0xbe0	; 0xbe0 <lcd_locate>
    1704:	c8 01       	movw	r24, r16
    1706:	0e 94 90 05 	call	0xb20	; 0xb20 <lcd_put_str>
    170a:	1f 91       	pop	r17
    170c:	0f 91       	pop	r16
    170e:	08 95       	ret

00001710 <Menu_Glowne>:
    1710:	cf 92       	push	r12
    1712:	df 92       	push	r13
    1714:	ef 92       	push	r14
    1716:	ff 92       	push	r15
    1718:	1f 93       	push	r17
    171a:	cf 93       	push	r28
    171c:	df 93       	push	r29
    171e:	10 92 70 03 	sts	0x0370, r1
    1722:	10 92 6f 03 	sts	0x036F, r1
    1726:	81 e0       	ldi	r24, 0x01	; 1
    1728:	90 e0       	ldi	r25, 0x00	; 0
    172a:	0e 94 bb 04 	call	0x976	; 0x976 <Delay_sec>
    172e:	80 91 6f 03 	lds	r24, 0x036F
    1732:	0e 94 55 0b 	call	0x16aa	; 0x16aa <Lcd_show_Menu_Glowne>
    1736:	c6 ea       	ldi	r28, 0xA6	; 166
    1738:	d2 e0       	ldi	r29, 0x02	; 2
    173a:	f3 e0       	ldi	r31, 0x03	; 3
    173c:	cf 2e       	mov	r12, r31
    173e:	d1 2c       	mov	r13, r1
    1740:	e4 e1       	ldi	r30, 0x14	; 20
    1742:	ee 2e       	mov	r14, r30
    1744:	f1 2c       	mov	r15, r1
    1746:	0e 94 3d 04 	call	0x87a	; 0x87a <Read_Pin_Input_Switch>
    174a:	80 32       	cpi	r24, 0x20	; 32
    174c:	61 f0       	breq	.+24     	; 0x1766 <Menu_Glowne+0x56>
    174e:	81 32       	cpi	r24, 0x21	; 33
    1750:	18 f4       	brcc	.+6      	; 0x1758 <Menu_Glowne+0x48>
    1752:	88 30       	cpi	r24, 0x08	; 8
    1754:	c1 f7       	brne	.-16     	; 0x1746 <Menu_Glowne+0x36>
    1756:	05 c0       	rjmp	.+10     	; 0x1762 <Menu_Glowne+0x52>
    1758:	80 34       	cpi	r24, 0x40	; 64
    175a:	a9 f0       	breq	.+42     	; 0x1786 <Menu_Glowne+0x76>
    175c:	80 38       	cpi	r24, 0x80	; 128
    175e:	99 f7       	brne	.-26     	; 0x1746 <Menu_Glowne+0x36>
    1760:	2c c0       	rjmp	.+88     	; 0x17ba <Menu_Glowne+0xaa>
    1762:	10 e0       	ldi	r17, 0x00	; 0
    1764:	4b c0       	rjmp	.+150    	; 0x17fc <Menu_Glowne+0xec>
    1766:	80 91 6f 03 	lds	r24, 0x036F
    176a:	90 91 70 03 	lds	r25, 0x0370
    176e:	01 96       	adiw	r24, 0x01	; 1
    1770:	90 93 70 03 	sts	0x0370, r25
    1774:	80 93 6f 03 	sts	0x036F, r24
    1778:	04 97       	sbiw	r24, 0x04	; 4
    177a:	b4 f0       	brlt	.+44     	; 0x17a8 <Menu_Glowne+0x98>
    177c:	10 92 70 03 	sts	0x0370, r1
    1780:	10 92 6f 03 	sts	0x036F, r1
    1784:	11 c0       	rjmp	.+34     	; 0x17a8 <Menu_Glowne+0x98>
    1786:	80 91 6f 03 	lds	r24, 0x036F
    178a:	90 91 70 03 	lds	r25, 0x0370
    178e:	01 97       	sbiw	r24, 0x01	; 1
    1790:	90 93 70 03 	sts	0x0370, r25
    1794:	80 93 6f 03 	sts	0x036F, r24
    1798:	97 ff       	sbrs	r25, 7
    179a:	06 c0       	rjmp	.+12     	; 0x17a8 <Menu_Glowne+0x98>
    179c:	d0 92 70 03 	sts	0x0370, r13
    17a0:	c0 92 6f 03 	sts	0x036F, r12
    17a4:	c2 ee       	ldi	r28, 0xE2	; 226
    17a6:	d2 e0       	ldi	r29, 0x02	; 2
    17a8:	80 91 6f 03 	lds	r24, 0x036F
    17ac:	0e 94 55 0b 	call	0x16aa	; 0x16aa <Lcd_show_Menu_Glowne>
    17b0:	84 e0       	ldi	r24, 0x04	; 4
    17b2:	90 e0       	ldi	r25, 0x00	; 0
    17b4:	0e 94 d1 04 	call	0x9a2	; 0x9a2 <Delay_100ms>
    17b8:	c6 cf       	rjmp	.-116    	; 0x1746 <Menu_Glowne+0x36>
    17ba:	80 e9       	ldi	r24, 0x90	; 144
    17bc:	91 e0       	ldi	r25, 0x01	; 1
    17be:	0e 94 af 04 	call	0x95e	; 0x95e <Delay_ms>
    17c2:	0e 94 f8 05 	call	0xbf0	; 0xbf0 <lcd_cls>
    17c6:	80 91 6f 03 	lds	r24, 0x036F
    17ca:	90 91 70 03 	lds	r25, 0x0370
    17ce:	8e 9d       	mul	r24, r14
    17d0:	f0 01       	movw	r30, r0
    17d2:	8f 9d       	mul	r24, r15
    17d4:	f0 0d       	add	r31, r0
    17d6:	9e 9d       	mul	r25, r14
    17d8:	f0 0d       	add	r31, r0
    17da:	11 24       	eor	r1, r1
    17dc:	ec 0f       	add	r30, r28
    17de:	fd 1f       	adc	r31, r29
    17e0:	81 89       	ldd	r24, Z+17	; 0x11
    17e2:	92 89       	ldd	r25, Z+18	; 0x12
    17e4:	89 2b       	or	r24, r25
    17e6:	49 f0       	breq	.+18     	; 0x17fa <Menu_Glowne+0xea>
    17e8:	0e 94 bf 0a 	call	0x157e	; 0x157e <Pod_Menu1>
    17ec:	18 2f       	mov	r17, r24
    17ee:	88 23       	and	r24, r24
    17f0:	09 f4       	brne	.+2      	; 0x17f4 <Menu_Glowne+0xe4>
    17f2:	a9 cf       	rjmp	.-174    	; 0x1746 <Menu_Glowne+0x36>
    17f4:	0e 94 f8 05 	call	0xbf0	; 0xbf0 <lcd_cls>
    17f8:	01 c0       	rjmp	.+2      	; 0x17fc <Menu_Glowne+0xec>
    17fa:	13 89       	ldd	r17, Z+19	; 0x13
    17fc:	81 2f       	mov	r24, r17
    17fe:	df 91       	pop	r29
    1800:	cf 91       	pop	r28
    1802:	1f 91       	pop	r17
    1804:	ff 90       	pop	r15
    1806:	ef 90       	pop	r14
    1808:	df 90       	pop	r13
    180a:	cf 90       	pop	r12
    180c:	08 95       	ret

0000180e <dec_to_bcd>:
    180e:	48 2f       	mov	r20, r24
    1810:	6a e0       	ldi	r22, 0x0A	; 10
    1812:	0e 94 6b 16 	call	0x2cd6	; 0x2cd6 <__udivmodqi4>
    1816:	28 2f       	mov	r18, r24
    1818:	30 e0       	ldi	r19, 0x00	; 0
    181a:	84 e0       	ldi	r24, 0x04	; 4
    181c:	22 0f       	add	r18, r18
    181e:	33 1f       	adc	r19, r19
    1820:	8a 95       	dec	r24
    1822:	e1 f7       	brne	.-8      	; 0x181c <dec_to_bcd+0xe>
    1824:	84 2f       	mov	r24, r20
    1826:	0e 94 6b 16 	call	0x2cd6	; 0x2cd6 <__udivmodqi4>
    182a:	89 2f       	mov	r24, r25
    182c:	82 2b       	or	r24, r18
    182e:	08 95       	ret

00001830 <bcd_to_dec>:
    1830:	28 2f       	mov	r18, r24
    1832:	22 95       	swap	r18
    1834:	2f 70       	andi	r18, 0x0F	; 15
    1836:	9a e0       	ldi	r25, 0x0A	; 10
    1838:	29 9f       	mul	r18, r25
    183a:	90 01       	movw	r18, r0
    183c:	11 24       	eor	r1, r1
    183e:	8f 70       	andi	r24, 0x0F	; 15
    1840:	82 0f       	add	r24, r18
    1842:	08 95       	ret

00001844 <struct_RTC_on_tab>:
    1844:	0f 93       	push	r16
    1846:	1f 93       	push	r17
    1848:	cf 93       	push	r28
    184a:	df 93       	push	r29
    184c:	fc 01       	movw	r30, r24
    184e:	db 01       	movw	r26, r22
    1850:	40 e0       	ldi	r20, 0x00	; 0
    1852:	50 e0       	ldi	r21, 0x00	; 0
    1854:	6b 5f       	subi	r22, 0xFB	; 251
    1856:	7f 4f       	sbci	r23, 0xFF	; 255
    1858:	8d 01       	movw	r16, r26
    185a:	0c 5f       	subi	r16, 0xFC	; 252
    185c:	1f 4f       	sbci	r17, 0xFF	; 255
    185e:	41 30       	cpi	r20, 0x01	; 1
    1860:	51 05       	cpc	r21, r1
    1862:	29 f4       	brne	.+10     	; 0x186e <struct_RTC_on_tab+0x2a>
    1864:	83 81       	ldd	r24, Z+3	; 0x03
    1866:	11 96       	adiw	r26, 0x01	; 1
    1868:	8c 93       	st	X, r24
    186a:	11 97       	sbiw	r26, 0x01	; 1
    186c:	2d c0       	rjmp	.+90     	; 0x18c8 <struct_RTC_on_tab+0x84>
    186e:	42 30       	cpi	r20, 0x02	; 2
    1870:	51 05       	cpc	r21, r1
    1872:	29 f4       	brne	.+10     	; 0x187e <struct_RTC_on_tab+0x3a>
    1874:	85 81       	ldd	r24, Z+5	; 0x05
    1876:	12 96       	adiw	r26, 0x02	; 2
    1878:	8c 93       	st	X, r24
    187a:	12 97       	sbiw	r26, 0x02	; 2
    187c:	25 c0       	rjmp	.+74     	; 0x18c8 <struct_RTC_on_tab+0x84>
    187e:	43 30       	cpi	r20, 0x03	; 3
    1880:	51 05       	cpc	r21, r1
    1882:	29 f4       	brne	.+10     	; 0x188e <struct_RTC_on_tab+0x4a>
    1884:	87 81       	ldd	r24, Z+7	; 0x07
    1886:	13 96       	adiw	r26, 0x03	; 3
    1888:	8c 93       	st	X, r24
    188a:	13 97       	sbiw	r26, 0x03	; 3
    188c:	1d c0       	rjmp	.+58     	; 0x18c8 <struct_RTC_on_tab+0x84>
    188e:	44 30       	cpi	r20, 0x04	; 4
    1890:	51 05       	cpc	r21, r1
    1892:	59 f4       	brne	.+22     	; 0x18aa <struct_RTC_on_tab+0x66>
    1894:	80 81       	ld	r24, Z
    1896:	90 e0       	ldi	r25, 0x00	; 0
    1898:	36 e0       	ldi	r19, 0x06	; 6
    189a:	88 0f       	add	r24, r24
    189c:	99 1f       	adc	r25, r25
    189e:	3a 95       	dec	r19
    18a0:	e1 f7       	brne	.-8      	; 0x189a <struct_RTC_on_tab+0x56>
    18a2:	e8 01       	movw	r28, r16
    18a4:	88 83       	st	Y, r24
    18a6:	21 85       	ldd	r18, Z+9	; 0x09
    18a8:	0d c0       	rjmp	.+26     	; 0x18c4 <struct_RTC_on_tab+0x80>
    18aa:	45 30       	cpi	r20, 0x05	; 5
    18ac:	51 05       	cpc	r21, r1
    18ae:	61 f4       	brne	.+24     	; 0x18c8 <struct_RTC_on_tab+0x84>
    18b0:	87 85       	ldd	r24, Z+15	; 0x0f
    18b2:	90 89       	ldd	r25, Z+16	; 0x10
    18b4:	25 e0       	ldi	r18, 0x05	; 5
    18b6:	88 0f       	add	r24, r24
    18b8:	99 1f       	adc	r25, r25
    18ba:	2a 95       	dec	r18
    18bc:	e1 f7       	brne	.-8      	; 0x18b6 <struct_RTC_on_tab+0x72>
    18be:	eb 01       	movw	r28, r22
    18c0:	88 83       	st	Y, r24
    18c2:	23 85       	ldd	r18, Z+11	; 0x0b
    18c4:	28 2b       	or	r18, r24
    18c6:	28 83       	st	Y, r18
    18c8:	4f 5f       	subi	r20, 0xFF	; 255
    18ca:	5f 4f       	sbci	r21, 0xFF	; 255
    18cc:	46 30       	cpi	r20, 0x06	; 6
    18ce:	51 05       	cpc	r21, r1
    18d0:	31 f6       	brne	.-116    	; 0x185e <struct_RTC_on_tab+0x1a>
    18d2:	cd 01       	movw	r24, r26
    18d4:	df 91       	pop	r29
    18d6:	cf 91       	pop	r28
    18d8:	1f 91       	pop	r17
    18da:	0f 91       	pop	r16
    18dc:	08 95       	ret

000018de <tab_RTC_on_struct>:
    18de:	0f 93       	push	r16
    18e0:	1f 93       	push	r17
    18e2:	cf 93       	push	r28
    18e4:	df 93       	push	r29
    18e6:	dc 01       	movw	r26, r24
    18e8:	fb 01       	movw	r30, r22
    18ea:	40 e0       	ldi	r20, 0x00	; 0
    18ec:	50 e0       	ldi	r21, 0x00	; 0
    18ee:	34 e6       	ldi	r19, 0x64	; 100
    18f0:	bc 01       	movw	r22, r24
    18f2:	6b 5f       	subi	r22, 0xFB	; 251
    18f4:	7f 4f       	sbci	r23, 0xFF	; 255
    18f6:	8c 01       	movw	r16, r24
    18f8:	0c 5f       	subi	r16, 0xFC	; 252
    18fa:	1f 4f       	sbci	r17, 0xFF	; 255
    18fc:	41 30       	cpi	r20, 0x01	; 1
    18fe:	51 05       	cpc	r21, r1
    1900:	31 f4       	brne	.+12     	; 0x190e <tab_RTC_on_struct+0x30>
    1902:	11 96       	adiw	r26, 0x01	; 1
    1904:	8c 91       	ld	r24, X
    1906:	11 97       	sbiw	r26, 0x01	; 1
    1908:	83 83       	std	Z+3, r24	; 0x03
    190a:	14 82       	std	Z+4, r1	; 0x04
    190c:	48 c0       	rjmp	.+144    	; 0x199e <tab_RTC_on_struct+0xc0>
    190e:	42 30       	cpi	r20, 0x02	; 2
    1910:	51 05       	cpc	r21, r1
    1912:	31 f4       	brne	.+12     	; 0x1920 <tab_RTC_on_struct+0x42>
    1914:	12 96       	adiw	r26, 0x02	; 2
    1916:	8c 91       	ld	r24, X
    1918:	12 97       	sbiw	r26, 0x02	; 2
    191a:	85 83       	std	Z+5, r24	; 0x05
    191c:	16 82       	std	Z+6, r1	; 0x06
    191e:	3f c0       	rjmp	.+126    	; 0x199e <tab_RTC_on_struct+0xc0>
    1920:	43 30       	cpi	r20, 0x03	; 3
    1922:	51 05       	cpc	r21, r1
    1924:	31 f4       	brne	.+12     	; 0x1932 <tab_RTC_on_struct+0x54>
    1926:	13 96       	adiw	r26, 0x03	; 3
    1928:	8c 91       	ld	r24, X
    192a:	13 97       	sbiw	r26, 0x03	; 3
    192c:	87 83       	std	Z+7, r24	; 0x07
    192e:	10 86       	std	Z+8, r1	; 0x08
    1930:	36 c0       	rjmp	.+108    	; 0x199e <tab_RTC_on_struct+0xc0>
    1932:	44 30       	cpi	r20, 0x04	; 4
    1934:	51 05       	cpc	r21, r1
    1936:	69 f4       	brne	.+26     	; 0x1952 <tab_RTC_on_struct+0x74>
    1938:	e8 01       	movw	r28, r16
    193a:	88 81       	ld	r24, Y
    193c:	90 e0       	ldi	r25, 0x00	; 0
    193e:	8f 73       	andi	r24, 0x3F	; 63
    1940:	92 87       	std	Z+10, r25	; 0x0a
    1942:	81 87       	std	Z+9, r24	; 0x09
    1944:	88 81       	ld	r24, Y
    1946:	82 95       	swap	r24
    1948:	86 95       	lsr	r24
    194a:	86 95       	lsr	r24
    194c:	83 70       	andi	r24, 0x03	; 3
    194e:	80 83       	st	Z, r24
    1950:	26 c0       	rjmp	.+76     	; 0x199e <tab_RTC_on_struct+0xc0>
    1952:	45 30       	cpi	r20, 0x05	; 5
    1954:	51 05       	cpc	r21, r1
    1956:	69 f4       	brne	.+26     	; 0x1972 <tab_RTC_on_struct+0x94>
    1958:	eb 01       	movw	r28, r22
    195a:	88 81       	ld	r24, Y
    195c:	90 e0       	ldi	r25, 0x00	; 0
    195e:	8f 71       	andi	r24, 0x1F	; 31
    1960:	94 87       	std	Z+12, r25	; 0x0c
    1962:	83 87       	std	Z+11, r24	; 0x0b
    1964:	88 81       	ld	r24, Y
    1966:	82 95       	swap	r24
    1968:	86 95       	lsr	r24
    196a:	87 70       	andi	r24, 0x07	; 7
    196c:	87 87       	std	Z+15, r24	; 0x0f
    196e:	10 8a       	std	Z+16, r1	; 0x10
    1970:	16 c0       	rjmp	.+44     	; 0x199e <tab_RTC_on_struct+0xc0>
    1972:	46 30       	cpi	r20, 0x06	; 6
    1974:	51 05       	cpc	r21, r1
    1976:	39 f4       	brne	.+14     	; 0x1986 <tab_RTC_on_struct+0xa8>
    1978:	16 96       	adiw	r26, 0x06	; 6
    197a:	8c 91       	ld	r24, X
    197c:	16 97       	sbiw	r26, 0x06	; 6
    197e:	83 9f       	mul	r24, r19
    1980:	c0 01       	movw	r24, r0
    1982:	11 24       	eor	r1, r1
    1984:	0a c0       	rjmp	.+20     	; 0x199a <tab_RTC_on_struct+0xbc>
    1986:	47 30       	cpi	r20, 0x07	; 7
    1988:	51 05       	cpc	r21, r1
    198a:	49 f4       	brne	.+18     	; 0x199e <tab_RTC_on_struct+0xc0>
    198c:	17 96       	adiw	r26, 0x07	; 7
    198e:	2c 91       	ld	r18, X
    1990:	17 97       	sbiw	r26, 0x07	; 7
    1992:	85 85       	ldd	r24, Z+13	; 0x0d
    1994:	96 85       	ldd	r25, Z+14	; 0x0e
    1996:	82 0f       	add	r24, r18
    1998:	91 1d       	adc	r25, r1
    199a:	96 87       	std	Z+14, r25	; 0x0e
    199c:	85 87       	std	Z+13, r24	; 0x0d
    199e:	4f 5f       	subi	r20, 0xFF	; 255
    19a0:	5f 4f       	sbci	r21, 0xFF	; 255
    19a2:	48 30       	cpi	r20, 0x08	; 8
    19a4:	51 05       	cpc	r21, r1
    19a6:	09 f0       	breq	.+2      	; 0x19aa <tab_RTC_on_struct+0xcc>
    19a8:	a9 cf       	rjmp	.-174    	; 0x18fc <tab_RTC_on_struct+0x1e>
    19aa:	cf 01       	movw	r24, r30
    19ac:	df 91       	pop	r29
    19ae:	cf 91       	pop	r28
    19b0:	1f 91       	pop	r17
    19b2:	0f 91       	pop	r16
    19b4:	08 95       	ret

000019b6 <czy_przestepny>:
    19b6:	fc 01       	movw	r30, r24
    19b8:	85 85       	ldd	r24, Z+13	; 0x0d
    19ba:	96 85       	ldd	r25, Z+14	; 0x0e
    19bc:	64 e0       	ldi	r22, 0x04	; 4
    19be:	70 e0       	ldi	r23, 0x00	; 0
    19c0:	0e 94 77 16 	call	0x2cee	; 0x2cee <__divmodhi4>
    19c4:	81 30       	cpi	r24, 0x01	; 1
    19c6:	91 05       	cpc	r25, r1
    19c8:	71 f0       	breq	.+28     	; 0x19e6 <czy_przestepny+0x30>
    19ca:	82 30       	cpi	r24, 0x02	; 2
    19cc:	91 05       	cpc	r25, r1
    19ce:	1c f4       	brge	.+6      	; 0x19d6 <czy_przestepny+0x20>
    19d0:	89 2b       	or	r24, r25
    19d2:	39 f0       	breq	.+14     	; 0x19e2 <czy_przestepny+0x2c>
    19d4:	08 95       	ret
    19d6:	82 30       	cpi	r24, 0x02	; 2
    19d8:	91 05       	cpc	r25, r1
    19da:	39 f0       	breq	.+14     	; 0x19ea <czy_przestepny+0x34>
    19dc:	03 97       	sbiw	r24, 0x03	; 3
    19de:	51 f4       	brne	.+20     	; 0x19f4 <czy_przestepny+0x3e>
    19e0:	07 c0       	rjmp	.+14     	; 0x19f0 <czy_przestepny+0x3a>
    19e2:	10 82       	st	Z, r1
    19e4:	08 95       	ret
    19e6:	81 e0       	ldi	r24, 0x01	; 1
    19e8:	01 c0       	rjmp	.+2      	; 0x19ec <czy_przestepny+0x36>
    19ea:	82 e0       	ldi	r24, 0x02	; 2
    19ec:	80 83       	st	Z, r24
    19ee:	08 95       	ret
    19f0:	83 e0       	ldi	r24, 0x03	; 3
    19f2:	80 83       	st	Z, r24
    19f4:	08 95       	ret

000019f6 <dzien_tyg>:
    19f6:	fc 01       	movw	r30, r24
    19f8:	16 8a       	std	Z+22, r1	; 0x16
    19fa:	15 8a       	std	Z+21, r1	; 0x15
    19fc:	80 81       	ld	r24, Z
    19fe:	88 23       	and	r24, r24
    1a00:	19 f4       	brne	.+6      	; 0x1a08 <dzien_tyg+0x12>
    1a02:	8e e6       	ldi	r24, 0x6E	; 110
    1a04:	91 e0       	ldi	r25, 0x01	; 1
    1a06:	02 c0       	rjmp	.+4      	; 0x1a0c <dzien_tyg+0x16>
    1a08:	8d e6       	ldi	r24, 0x6D	; 109
    1a0a:	91 e0       	ldi	r25, 0x01	; 1
    1a0c:	92 8b       	std	Z+18, r25	; 0x12
    1a0e:	81 8b       	std	Z+17, r24	; 0x11
    1a10:	23 89       	ldd	r18, Z+19	; 0x13
    1a12:	34 89       	ldd	r19, Z+20	; 0x14
    1a14:	81 89       	ldd	r24, Z+17	; 0x11
    1a16:	92 89       	ldd	r25, Z+18	; 0x12
    1a18:	82 17       	cp	r24, r18
    1a1a:	93 07       	cpc	r25, r19
    1a1c:	6c f4       	brge	.+26     	; 0x1a38 <dzien_tyg+0x42>
    1a1e:	81 e0       	ldi	r24, 0x01	; 1
    1a20:	90 e0       	ldi	r25, 0x00	; 0
    1a22:	94 8b       	std	Z+20, r25	; 0x14
    1a24:	83 8b       	std	Z+19, r24	; 0x13
    1a26:	80 81       	ld	r24, Z
    1a28:	25 89       	ldd	r18, Z+21	; 0x15
    1a2a:	36 89       	ldd	r19, Z+22	; 0x16
    1a2c:	81 30       	cpi	r24, 0x01	; 1
    1a2e:	31 f4       	brne	.+12     	; 0x1a3c <dzien_tyg+0x46>
    1a30:	22 59       	subi	r18, 0x92	; 146
    1a32:	3e 4f       	sbci	r19, 0xFE	; 254
    1a34:	36 8b       	std	Z+22, r19	; 0x16
    1a36:	25 8b       	std	Z+21, r18	; 0x15
    1a38:	41 e0       	ldi	r20, 0x01	; 1
    1a3a:	36 c0       	rjmp	.+108    	; 0x1aa8 <dzien_tyg+0xb2>
    1a3c:	23 59       	subi	r18, 0x93	; 147
    1a3e:	3e 4f       	sbci	r19, 0xFE	; 254
    1a40:	f9 cf       	rjmp	.-14     	; 0x1a34 <dzien_tyg+0x3e>
    1a42:	41 30       	cpi	r20, 0x01	; 1
    1a44:	19 f4       	brne	.+6      	; 0x1a4c <dzien_tyg+0x56>
    1a46:	81 85       	ldd	r24, Z+9	; 0x09
    1a48:	92 85       	ldd	r25, Z+10	; 0x0a
    1a4a:	2b c0       	rjmp	.+86     	; 0x1aa2 <dzien_tyg+0xac>
    1a4c:	42 30       	cpi	r20, 0x02	; 2
    1a4e:	51 f0       	breq	.+20     	; 0x1a64 <dzien_tyg+0x6e>
    1a50:	44 30       	cpi	r20, 0x04	; 4
    1a52:	41 f0       	breq	.+16     	; 0x1a64 <dzien_tyg+0x6e>
    1a54:	46 30       	cpi	r20, 0x06	; 6
    1a56:	31 f0       	breq	.+12     	; 0x1a64 <dzien_tyg+0x6e>
    1a58:	48 30       	cpi	r20, 0x08	; 8
    1a5a:	21 f0       	breq	.+8      	; 0x1a64 <dzien_tyg+0x6e>
    1a5c:	49 30       	cpi	r20, 0x09	; 9
    1a5e:	11 f0       	breq	.+4      	; 0x1a64 <dzien_tyg+0x6e>
    1a60:	4b 30       	cpi	r20, 0x0B	; 11
    1a62:	21 f4       	brne	.+8      	; 0x1a6c <dzien_tyg+0x76>
    1a64:	83 89       	ldd	r24, Z+19	; 0x13
    1a66:	94 89       	ldd	r25, Z+20	; 0x14
    1a68:	4f 96       	adiw	r24, 0x1f	; 31
    1a6a:	1b c0       	rjmp	.+54     	; 0x1aa2 <dzien_tyg+0xac>
    1a6c:	45 30       	cpi	r20, 0x05	; 5
    1a6e:	31 f0       	breq	.+12     	; 0x1a7c <dzien_tyg+0x86>
    1a70:	47 30       	cpi	r20, 0x07	; 7
    1a72:	21 f0       	breq	.+8      	; 0x1a7c <dzien_tyg+0x86>
    1a74:	4a 30       	cpi	r20, 0x0A	; 10
    1a76:	11 f0       	breq	.+4      	; 0x1a7c <dzien_tyg+0x86>
    1a78:	4c 30       	cpi	r20, 0x0C	; 12
    1a7a:	21 f4       	brne	.+8      	; 0x1a84 <dzien_tyg+0x8e>
    1a7c:	83 89       	ldd	r24, Z+19	; 0x13
    1a7e:	94 89       	ldd	r25, Z+20	; 0x14
    1a80:	4e 96       	adiw	r24, 0x1e	; 30
    1a82:	0f c0       	rjmp	.+30     	; 0x1aa2 <dzien_tyg+0xac>
    1a84:	43 30       	cpi	r20, 0x03	; 3
    1a86:	79 f4       	brne	.+30     	; 0x1aa6 <dzien_tyg+0xb0>
    1a88:	80 81       	ld	r24, Z
    1a8a:	88 23       	and	r24, r24
    1a8c:	21 f4       	brne	.+8      	; 0x1a96 <dzien_tyg+0xa0>
    1a8e:	83 89       	ldd	r24, Z+19	; 0x13
    1a90:	94 89       	ldd	r25, Z+20	; 0x14
    1a92:	4d 96       	adiw	r24, 0x1d	; 29
    1a94:	06 c0       	rjmp	.+12     	; 0x1aa2 <dzien_tyg+0xac>
    1a96:	81 50       	subi	r24, 0x01	; 1
    1a98:	83 30       	cpi	r24, 0x03	; 3
    1a9a:	28 f4       	brcc	.+10     	; 0x1aa6 <dzien_tyg+0xb0>
    1a9c:	83 89       	ldd	r24, Z+19	; 0x13
    1a9e:	94 89       	ldd	r25, Z+20	; 0x14
    1aa0:	4c 96       	adiw	r24, 0x1c	; 28
    1aa2:	94 8b       	std	Z+20, r25	; 0x14
    1aa4:	83 8b       	std	Z+19, r24	; 0x13
    1aa6:	4f 5f       	subi	r20, 0xFF	; 255
    1aa8:	24 2f       	mov	r18, r20
    1aaa:	30 e0       	ldi	r19, 0x00	; 0
    1aac:	83 85       	ldd	r24, Z+11	; 0x0b
    1aae:	94 85       	ldd	r25, Z+12	; 0x0c
    1ab0:	82 17       	cp	r24, r18
    1ab2:	93 07       	cpc	r25, r19
    1ab4:	34 f6       	brge	.-116    	; 0x1a42 <dzien_tyg+0x4c>
    1ab6:	23 89       	ldd	r18, Z+19	; 0x13
    1ab8:	34 89       	ldd	r19, Z+20	; 0x14
    1aba:	85 89       	ldd	r24, Z+21	; 0x15
    1abc:	96 89       	ldd	r25, Z+22	; 0x16
    1abe:	28 0f       	add	r18, r24
    1ac0:	39 1f       	adc	r19, r25
    1ac2:	36 8b       	std	Z+22, r19	; 0x16
    1ac4:	25 8b       	std	Z+21, r18	; 0x15
    1ac6:	27 30       	cpi	r18, 0x07	; 7
    1ac8:	31 05       	cpc	r19, r1
    1aca:	44 f4       	brge	.+16     	; 0x1adc <dzien_tyg+0xe6>
    1acc:	c9 01       	movw	r24, r18
    1ace:	67 e0       	ldi	r22, 0x07	; 7
    1ad0:	70 e0       	ldi	r23, 0x00	; 0
    1ad2:	0e 94 77 16 	call	0x2cee	; 0x2cee <__divmodhi4>
    1ad6:	01 97       	sbiw	r24, 0x01	; 1
    1ad8:	90 8b       	std	Z+16, r25	; 0x10
    1ada:	87 87       	std	Z+15, r24	; 0x0f
    1adc:	85 89       	ldd	r24, Z+21	; 0x15
    1ade:	96 89       	ldd	r25, Z+22	; 0x16
    1ae0:	87 30       	cpi	r24, 0x07	; 7
    1ae2:	91 05       	cpc	r25, r1
    1ae4:	84 f0       	brlt	.+32     	; 0x1b06 <dzien_tyg+0x110>
    1ae6:	67 e0       	ldi	r22, 0x07	; 7
    1ae8:	70 e0       	ldi	r23, 0x00	; 0
    1aea:	0e 94 77 16 	call	0x2cee	; 0x2cee <__divmodhi4>
    1aee:	9c 01       	movw	r18, r24
    1af0:	00 97       	sbiw	r24, 0x00	; 0
    1af2:	29 f4       	brne	.+10     	; 0x1afe <dzien_tyg+0x108>
    1af4:	86 e0       	ldi	r24, 0x06	; 6
    1af6:	90 e0       	ldi	r25, 0x00	; 0
    1af8:	90 8b       	std	Z+16, r25	; 0x10
    1afa:	87 87       	std	Z+15, r24	; 0x0f
    1afc:	08 95       	ret
    1afe:	21 50       	subi	r18, 0x01	; 1
    1b00:	30 40       	sbci	r19, 0x00	; 0
    1b02:	30 8b       	std	Z+16, r19	; 0x10
    1b04:	27 87       	std	Z+15, r18	; 0x0f
    1b06:	08 95       	ret

00001b08 <blink_text>:
    1b08:	ff 92       	push	r15
    1b0a:	0f 93       	push	r16
    1b0c:	1f 93       	push	r17
    1b0e:	df 93       	push	r29
    1b10:	cf 93       	push	r28
    1b12:	cd b7       	in	r28, 0x3d	; 61
    1b14:	de b7       	in	r29, 0x3e	; 62
    1b16:	29 97       	sbiw	r28, 0x09	; 9
    1b18:	0f b6       	in	r0, 0x3f	; 63
    1b1a:	f8 94       	cli
    1b1c:	de bf       	out	0x3e, r29	; 62
    1b1e:	0f be       	out	0x3f, r0	; 63
    1b20:	cd bf       	out	0x3d, r28	; 61
    1b22:	08 2f       	mov	r16, r24
    1b24:	16 2f       	mov	r17, r22
    1b26:	f4 2e       	mov	r15, r20
    1b28:	86 2f       	mov	r24, r22
    1b2a:	60 2f       	mov	r22, r16
    1b2c:	0e 94 f0 05 	call	0xbe0	; 0xbe0 <lcd_locate>
    1b30:	de 01       	movw	r26, r28
    1b32:	15 96       	adiw	r26, 0x05	; 5
    1b34:	e6 ef       	ldi	r30, 0xF6	; 246
    1b36:	f2 e0       	ldi	r31, 0x02	; 2
    1b38:	85 e0       	ldi	r24, 0x05	; 5
    1b3a:	01 90       	ld	r0, Z+
    1b3c:	0d 92       	st	X+, r0
    1b3e:	81 50       	subi	r24, 0x01	; 1
    1b40:	e1 f7       	brne	.-8      	; 0x1b3a <blink_text+0x32>
    1b42:	9e 01       	movw	r18, r28
    1b44:	2b 5f       	subi	r18, 0xFB	; 251
    1b46:	3f 4f       	sbci	r19, 0xFF	; 255
    1b48:	de 01       	movw	r26, r28
    1b4a:	11 96       	adiw	r26, 0x01	; 1
    1b4c:	f9 01       	movw	r30, r18
    1b4e:	02 c0       	rjmp	.+4      	; 0x1b54 <blink_text+0x4c>
    1b50:	81 91       	ld	r24, Z+
    1b52:	8d 93       	st	X+, r24
    1b54:	8e 2f       	mov	r24, r30
    1b56:	82 1b       	sub	r24, r18
    1b58:	8f 15       	cp	r24, r15
    1b5a:	d0 f3       	brcs	.-12     	; 0x1b50 <blink_text+0x48>
    1b5c:	81 2f       	mov	r24, r17
    1b5e:	60 2f       	mov	r22, r16
    1b60:	0e 94 f0 05 	call	0xbe0	; 0xbe0 <lcd_locate>
    1b64:	ce 01       	movw	r24, r28
    1b66:	01 96       	adiw	r24, 0x01	; 1
    1b68:	0e 94 90 05 	call	0xb20	; 0xb20 <lcd_put_str>
    1b6c:	29 96       	adiw	r28, 0x09	; 9
    1b6e:	0f b6       	in	r0, 0x3f	; 63
    1b70:	f8 94       	cli
    1b72:	de bf       	out	0x3e, r29	; 62
    1b74:	0f be       	out	0x3f, r0	; 63
    1b76:	cd bf       	out	0x3d, r28	; 61
    1b78:	cf 91       	pop	r28
    1b7a:	df 91       	pop	r29
    1b7c:	1f 91       	pop	r17
    1b7e:	0f 91       	pop	r16
    1b80:	ff 90       	pop	r15
    1b82:	08 95       	ret

00001b84 <show_set_time>:
    1b84:	0e 94 f8 05 	call	0xbf0	; 0xbf0 <lcd_cls>
    1b88:	80 e0       	ldi	r24, 0x00	; 0
    1b8a:	64 e0       	ldi	r22, 0x04	; 4
    1b8c:	0e 94 f0 05 	call	0xbe0	; 0xbe0 <lcd_locate>
    1b90:	80 91 df 04 	lds	r24, 0x04DF
    1b94:	90 91 e0 04 	lds	r25, 0x04E0
    1b98:	8a 30       	cpi	r24, 0x0A	; 10
    1b9a:	91 05       	cpc	r25, r1
    1b9c:	44 f4       	brge	.+16     	; 0x1bae <show_set_time+0x2a>
    1b9e:	8b ef       	ldi	r24, 0xFB	; 251
    1ba0:	92 e0       	ldi	r25, 0x02	; 2
    1ba2:	0e 94 90 05 	call	0xb20	; 0xb20 <lcd_put_str>
    1ba6:	80 91 df 04 	lds	r24, 0x04DF
    1baa:	90 91 e0 04 	lds	r25, 0x04E0
    1bae:	0e 94 e9 07 	call	0xfd2	; 0xfd2 <lcd_int>
    1bb2:	8d ef       	ldi	r24, 0xFD	; 253
    1bb4:	92 e0       	ldi	r25, 0x02	; 2
    1bb6:	0e 94 90 05 	call	0xb20	; 0xb20 <lcd_put_str>
    1bba:	80 91 dd 04 	lds	r24, 0x04DD
    1bbe:	90 91 de 04 	lds	r25, 0x04DE
    1bc2:	8a 30       	cpi	r24, 0x0A	; 10
    1bc4:	91 05       	cpc	r25, r1
    1bc6:	44 f4       	brge	.+16     	; 0x1bd8 <show_set_time+0x54>
    1bc8:	8b ef       	ldi	r24, 0xFB	; 251
    1bca:	92 e0       	ldi	r25, 0x02	; 2
    1bcc:	0e 94 90 05 	call	0xb20	; 0xb20 <lcd_put_str>
    1bd0:	80 91 dd 04 	lds	r24, 0x04DD
    1bd4:	90 91 de 04 	lds	r25, 0x04DE
    1bd8:	0e 94 e9 07 	call	0xfd2	; 0xfd2 <lcd_int>
    1bdc:	8d ef       	ldi	r24, 0xFD	; 253
    1bde:	92 e0       	ldi	r25, 0x02	; 2
    1be0:	0e 94 90 05 	call	0xb20	; 0xb20 <lcd_put_str>
    1be4:	80 91 db 04 	lds	r24, 0x04DB
    1be8:	90 91 dc 04 	lds	r25, 0x04DC
    1bec:	8a 30       	cpi	r24, 0x0A	; 10
    1bee:	91 05       	cpc	r25, r1
    1bf0:	44 f4       	brge	.+16     	; 0x1c02 <show_set_time+0x7e>
    1bf2:	8b ef       	ldi	r24, 0xFB	; 251
    1bf4:	92 e0       	ldi	r25, 0x02	; 2
    1bf6:	0e 94 90 05 	call	0xb20	; 0xb20 <lcd_put_str>
    1bfa:	80 91 db 04 	lds	r24, 0x04DB
    1bfe:	90 91 dc 04 	lds	r25, 0x04DC
    1c02:	0e 94 e9 07 	call	0xfd2	; 0xfd2 <lcd_int>
    1c06:	81 e0       	ldi	r24, 0x01	; 1
    1c08:	63 e0       	ldi	r22, 0x03	; 3
    1c0a:	0e 94 f0 05 	call	0xbe0	; 0xbe0 <lcd_locate>
    1c0e:	80 91 e1 04 	lds	r24, 0x04E1
    1c12:	90 91 e2 04 	lds	r25, 0x04E2
    1c16:	8a 30       	cpi	r24, 0x0A	; 10
    1c18:	91 05       	cpc	r25, r1
    1c1a:	44 f4       	brge	.+16     	; 0x1c2c <show_set_time+0xa8>
    1c1c:	8b ef       	ldi	r24, 0xFB	; 251
    1c1e:	92 e0       	ldi	r25, 0x02	; 2
    1c20:	0e 94 90 05 	call	0xb20	; 0xb20 <lcd_put_str>
    1c24:	80 91 e1 04 	lds	r24, 0x04E1
    1c28:	90 91 e2 04 	lds	r25, 0x04E2
    1c2c:	0e 94 e9 07 	call	0xfd2	; 0xfd2 <lcd_int>
    1c30:	8f ef       	ldi	r24, 0xFF	; 255
    1c32:	92 e0       	ldi	r25, 0x02	; 2
    1c34:	0e 94 90 05 	call	0xb20	; 0xb20 <lcd_put_str>
    1c38:	80 91 e3 04 	lds	r24, 0x04E3
    1c3c:	90 91 e4 04 	lds	r25, 0x04E4
    1c40:	8a 30       	cpi	r24, 0x0A	; 10
    1c42:	91 05       	cpc	r25, r1
    1c44:	44 f4       	brge	.+16     	; 0x1c56 <show_set_time+0xd2>
    1c46:	8b ef       	ldi	r24, 0xFB	; 251
    1c48:	92 e0       	ldi	r25, 0x02	; 2
    1c4a:	0e 94 90 05 	call	0xb20	; 0xb20 <lcd_put_str>
    1c4e:	80 91 e3 04 	lds	r24, 0x04E3
    1c52:	90 91 e4 04 	lds	r25, 0x04E4
    1c56:	0e 94 e9 07 	call	0xfd2	; 0xfd2 <lcd_int>
    1c5a:	8f ef       	ldi	r24, 0xFF	; 255
    1c5c:	92 e0       	ldi	r25, 0x02	; 2
    1c5e:	0e 94 90 05 	call	0xb20	; 0xb20 <lcd_put_str>
    1c62:	80 91 e5 04 	lds	r24, 0x04E5
    1c66:	90 91 e6 04 	lds	r25, 0x04E6
    1c6a:	0e 94 e9 07 	call	0xfd2	; 0xfd2 <lcd_int>
    1c6e:	82 e0       	ldi	r24, 0x02	; 2
    1c70:	90 e0       	ldi	r25, 0x00	; 0
    1c72:	0e 94 d1 04 	call	0x9a2	; 0x9a2 <Delay_100ms>
    1c76:	08 95       	ret

00001c78 <read_time>:
    1c78:	df 92       	push	r13
    1c7a:	ef 92       	push	r14
    1c7c:	ff 92       	push	r15
    1c7e:	0f 93       	push	r16
    1c80:	1f 93       	push	r17
    1c82:	df 93       	push	r29
    1c84:	cf 93       	push	r28
    1c86:	cd b7       	in	r28, 0x3d	; 61
    1c88:	de b7       	in	r29, 0x3e	; 62
    1c8a:	60 97       	sbiw	r28, 0x10	; 16
    1c8c:	0f b6       	in	r0, 0x3f	; 63
    1c8e:	f8 94       	cli
    1c90:	de bf       	out	0x3e, r29	; 62
    1c92:	0f be       	out	0x3f, r0	; 63
    1c94:	cd bf       	out	0x3d, r28	; 61
    1c96:	19 82       	std	Y+1, r1	; 0x01
    1c98:	1a 82       	std	Y+2, r1	; 0x02
    1c9a:	80 ea       	ldi	r24, 0xA0	; 160
    1c9c:	60 e1       	ldi	r22, 0x10	; 16
    1c9e:	42 e0       	ldi	r20, 0x02	; 2
    1ca0:	9e 01       	movw	r18, r28
    1ca2:	2f 5f       	subi	r18, 0xFF	; 255
    1ca4:	3f 4f       	sbci	r19, 0xFF	; 255
    1ca6:	0e 94 83 08 	call	0x1106	; 0x1106 <I2C_read_data>
    1caa:	8e 01       	movw	r16, r28
    1cac:	0d 5f       	subi	r16, 0xFD	; 253
    1cae:	1f 4f       	sbci	r17, 0xFF	; 255
    1cb0:	86 e0       	ldi	r24, 0x06	; 6
    1cb2:	f8 01       	movw	r30, r16
    1cb4:	11 92       	st	Z+, r1
    1cb6:	8a 95       	dec	r24
    1cb8:	e9 f7       	brne	.-6      	; 0x1cb4 <read_time+0x3c>
    1cba:	a9 e0       	ldi	r26, 0x09	; 9
    1cbc:	ea 2e       	mov	r14, r26
    1cbe:	f1 2c       	mov	r15, r1
    1cc0:	ec 0e       	add	r14, r28
    1cc2:	fd 1e       	adc	r15, r29
    1cc4:	88 e0       	ldi	r24, 0x08	; 8
    1cc6:	f7 01       	movw	r30, r14
    1cc8:	11 92       	st	Z+, r1
    1cca:	8a 95       	dec	r24
    1ccc:	e9 f7       	brne	.-6      	; 0x1cc8 <read_time+0x50>
    1cce:	80 ea       	ldi	r24, 0xA0	; 160
    1cd0:	61 e0       	ldi	r22, 0x01	; 1
    1cd2:	46 e0       	ldi	r20, 0x06	; 6
    1cd4:	98 01       	movw	r18, r16
    1cd6:	0e 94 83 08 	call	0x1106	; 0x1106 <I2C_read_data>
    1cda:	2f 81       	ldd	r18, Y+7	; 0x07
    1cdc:	f0 ec       	ldi	r31, 0xC0	; 192
    1cde:	df 2e       	mov	r13, r31
    1ce0:	d2 22       	and	r13, r18
    1ce2:	82 2f       	mov	r24, r18
    1ce4:	8f 73       	andi	r24, 0x3F	; 63
    1ce6:	82 95       	swap	r24
    1ce8:	8f 70       	andi	r24, 0x0F	; 15
    1cea:	3a e0       	ldi	r19, 0x0A	; 10
    1cec:	83 9f       	mul	r24, r19
    1cee:	c0 01       	movw	r24, r0
    1cf0:	11 24       	eor	r1, r1
    1cf2:	62 2f       	mov	r22, r18
    1cf4:	6f 70       	andi	r22, 0x0F	; 15
    1cf6:	68 0f       	add	r22, r24
    1cf8:	28 85       	ldd	r18, Y+8	; 0x08
    1cfa:	72 2f       	mov	r23, r18
    1cfc:	70 7e       	andi	r23, 0xE0	; 224
    1cfe:	82 2f       	mov	r24, r18
    1d00:	8f 71       	andi	r24, 0x1F	; 31
    1d02:	82 95       	swap	r24
    1d04:	8f 70       	andi	r24, 0x0F	; 15
    1d06:	83 9f       	mul	r24, r19
    1d08:	c0 01       	movw	r24, r0
    1d0a:	11 24       	eor	r1, r1
    1d0c:	32 2f       	mov	r19, r18
    1d0e:	3f 70       	andi	r19, 0x0F	; 15
    1d10:	38 0f       	add	r19, r24
    1d12:	40 e0       	ldi	r20, 0x00	; 0
    1d14:	50 e0       	ldi	r21, 0x00	; 0
    1d16:	d7 01       	movw	r26, r14
    1d18:	ea e0       	ldi	r30, 0x0A	; 10
    1d1a:	ee 2e       	mov	r14, r30
    1d1c:	44 30       	cpi	r20, 0x04	; 4
    1d1e:	29 f4       	brne	.+10     	; 0x1d2a <read_time+0xb2>
    1d20:	8d 85       	ldd	r24, Y+13	; 0x0d
    1d22:	8d 29       	or	r24, r13
    1d24:	86 2b       	or	r24, r22
    1d26:	8d 87       	std	Y+13, r24	; 0x0d
    1d28:	17 c0       	rjmp	.+46     	; 0x1d58 <read_time+0xe0>
    1d2a:	45 30       	cpi	r20, 0x05	; 5
    1d2c:	29 f4       	brne	.+10     	; 0x1d38 <read_time+0xc0>
    1d2e:	8e 85       	ldd	r24, Y+14	; 0x0e
    1d30:	87 2b       	or	r24, r23
    1d32:	83 2b       	or	r24, r19
    1d34:	8e 87       	std	Y+14, r24	; 0x0e
    1d36:	10 c0       	rjmp	.+32     	; 0x1d58 <read_time+0xe0>
    1d38:	f8 01       	movw	r30, r16
    1d3a:	e4 0f       	add	r30, r20
    1d3c:	f5 1f       	adc	r31, r21
    1d3e:	20 81       	ld	r18, Z
    1d40:	fd 01       	movw	r30, r26
    1d42:	e4 0f       	add	r30, r20
    1d44:	f5 1f       	adc	r31, r21
    1d46:	82 2f       	mov	r24, r18
    1d48:	82 95       	swap	r24
    1d4a:	8f 70       	andi	r24, 0x0F	; 15
    1d4c:	8e 9d       	mul	r24, r14
    1d4e:	c0 01       	movw	r24, r0
    1d50:	11 24       	eor	r1, r1
    1d52:	2f 70       	andi	r18, 0x0F	; 15
    1d54:	28 0f       	add	r18, r24
    1d56:	20 83       	st	Z, r18
    1d58:	4f 5f       	subi	r20, 0xFF	; 255
    1d5a:	5f 4f       	sbci	r21, 0xFF	; 255
    1d5c:	46 30       	cpi	r20, 0x06	; 6
    1d5e:	51 05       	cpc	r21, r1
    1d60:	e9 f6       	brne	.-70     	; 0x1d1c <read_time+0xa4>
    1d62:	29 81       	ldd	r18, Y+1	; 0x01
    1d64:	82 2f       	mov	r24, r18
    1d66:	82 95       	swap	r24
    1d68:	8f 70       	andi	r24, 0x0F	; 15
    1d6a:	3a e0       	ldi	r19, 0x0A	; 10
    1d6c:	83 9f       	mul	r24, r19
    1d6e:	c0 01       	movw	r24, r0
    1d70:	11 24       	eor	r1, r1
    1d72:	2f 70       	andi	r18, 0x0F	; 15
    1d74:	28 0f       	add	r18, r24
    1d76:	2f 87       	std	Y+15, r18	; 0x0f
    1d78:	2a 81       	ldd	r18, Y+2	; 0x02
    1d7a:	82 2f       	mov	r24, r18
    1d7c:	82 95       	swap	r24
    1d7e:	8f 70       	andi	r24, 0x0F	; 15
    1d80:	83 9f       	mul	r24, r19
    1d82:	c0 01       	movw	r24, r0
    1d84:	11 24       	eor	r1, r1
    1d86:	2f 70       	andi	r18, 0x0F	; 15
    1d88:	28 0f       	add	r18, r24
    1d8a:	28 8b       	std	Y+16, r18	; 0x10
    1d8c:	ce 01       	movw	r24, r28
    1d8e:	09 96       	adiw	r24, 0x09	; 9
    1d90:	68 ed       	ldi	r22, 0xD8	; 216
    1d92:	74 e0       	ldi	r23, 0x04	; 4
    1d94:	0e 94 6f 0c 	call	0x18de	; 0x18de <tab_RTC_on_struct>
    1d98:	60 96       	adiw	r28, 0x10	; 16
    1d9a:	0f b6       	in	r0, 0x3f	; 63
    1d9c:	f8 94       	cli
    1d9e:	de bf       	out	0x3e, r29	; 62
    1da0:	0f be       	out	0x3f, r0	; 63
    1da2:	cd bf       	out	0x3d, r28	; 61
    1da4:	cf 91       	pop	r28
    1da6:	df 91       	pop	r29
    1da8:	1f 91       	pop	r17
    1daa:	0f 91       	pop	r16
    1dac:	ff 90       	pop	r15
    1dae:	ef 90       	pop	r14
    1db0:	df 90       	pop	r13
    1db2:	08 95       	ret

00001db4 <show_day_week>:
    1db4:	0f 93       	push	r16
    1db6:	1f 93       	push	r17
    1db8:	00 91 e7 04 	lds	r16, 0x04E7
    1dbc:	0e 94 3c 0e 	call	0x1c78	; 0x1c78 <read_time>
    1dc0:	10 e0       	ldi	r17, 0x00	; 0
    1dc2:	80 91 e7 04 	lds	r24, 0x04E7
    1dc6:	90 91 e8 04 	lds	r25, 0x04E8
    1dca:	08 17       	cp	r16, r24
    1dcc:	19 07       	cpc	r17, r25
    1dce:	84 f5       	brge	.+96     	; 0x1e30 <show_day_week+0x7c>
    1dd0:	20 91 eb 04 	lds	r18, 0x04EB
    1dd4:	30 91 ec 04 	lds	r19, 0x04EC
    1dd8:	2f 5f       	subi	r18, 0xFF	; 255
    1dda:	3f 4f       	sbci	r19, 0xFF	; 255
    1ddc:	30 93 ec 04 	sts	0x04EC, r19
    1de0:	20 93 eb 04 	sts	0x04EB, r18
    1de4:	40 91 ed 04 	lds	r20, 0x04ED
    1de8:	50 91 ee 04 	lds	r21, 0x04EE
    1dec:	4f 5f       	subi	r20, 0xFF	; 255
    1dee:	5f 4f       	sbci	r21, 0xFF	; 255
    1df0:	50 93 ee 04 	sts	0x04EE, r21
    1df4:	40 93 ed 04 	sts	0x04ED, r20
    1df8:	41 50       	subi	r20, 0x01	; 1
    1dfa:	50 40       	sbci	r21, 0x00	; 0
    1dfc:	80 91 e9 04 	lds	r24, 0x04E9
    1e00:	90 91 ea 04 	lds	r25, 0x04EA
    1e04:	82 17       	cp	r24, r18
    1e06:	93 07       	cpc	r25, r19
    1e08:	9c f4       	brge	.+38     	; 0x1e30 <show_day_week+0x7c>
    1e0a:	81 e0       	ldi	r24, 0x01	; 1
    1e0c:	90 e0       	ldi	r25, 0x00	; 0
    1e0e:	90 93 ec 04 	sts	0x04EC, r25
    1e12:	80 93 eb 04 	sts	0x04EB, r24
    1e16:	80 91 d8 04 	lds	r24, 0x04D8
    1e1a:	81 30       	cpi	r24, 0x01	; 1
    1e1c:	19 f4       	brne	.+6      	; 0x1e24 <show_day_week+0x70>
    1e1e:	41 59       	subi	r20, 0x91	; 145
    1e20:	5e 4f       	sbci	r21, 0xFE	; 254
    1e22:	02 c0       	rjmp	.+4      	; 0x1e28 <show_day_week+0x74>
    1e24:	42 59       	subi	r20, 0x92	; 146
    1e26:	5e 4f       	sbci	r21, 0xFE	; 254
    1e28:	50 93 ee 04 	sts	0x04EE, r21
    1e2c:	40 93 ed 04 	sts	0x04ED, r20
    1e30:	81 e0       	ldi	r24, 0x01	; 1
    1e32:	60 e0       	ldi	r22, 0x00	; 0
    1e34:	0e 94 f0 05 	call	0xbe0	; 0xbe0 <lcd_locate>
    1e38:	81 e0       	ldi	r24, 0x01	; 1
    1e3a:	93 e0       	ldi	r25, 0x03	; 3
    1e3c:	0e 94 90 05 	call	0xb20	; 0xb20 <lcd_put_str>
    1e40:	80 91 eb 04 	lds	r24, 0x04EB
    1e44:	90 91 ec 04 	lds	r25, 0x04EC
    1e48:	0e 94 e9 07 	call	0xfd2	; 0xfd2 <lcd_int>
    1e4c:	84 e0       	ldi	r24, 0x04	; 4
    1e4e:	93 e0       	ldi	r25, 0x03	; 3
    1e50:	0e 94 90 05 	call	0xb20	; 0xb20 <lcd_put_str>
    1e54:	80 e0       	ldi	r24, 0x00	; 0
    1e56:	60 e0       	ldi	r22, 0x00	; 0
    1e58:	0e 94 f0 05 	call	0xbe0	; 0xbe0 <lcd_locate>
    1e5c:	80 91 e7 04 	lds	r24, 0x04E7
    1e60:	90 91 e8 04 	lds	r25, 0x04E8
    1e64:	83 30       	cpi	r24, 0x03	; 3
    1e66:	91 05       	cpc	r25, r1
    1e68:	f1 f0       	breq	.+60     	; 0x1ea6 <show_day_week+0xf2>
    1e6a:	84 30       	cpi	r24, 0x04	; 4
    1e6c:	91 05       	cpc	r25, r1
    1e6e:	4c f4       	brge	.+18     	; 0x1e82 <show_day_week+0xce>
    1e70:	81 30       	cpi	r24, 0x01	; 1
    1e72:	91 05       	cpc	r25, r1
    1e74:	91 f0       	breq	.+36     	; 0x1e9a <show_day_week+0xe6>
    1e76:	82 30       	cpi	r24, 0x02	; 2
    1e78:	91 05       	cpc	r25, r1
    1e7a:	94 f4       	brge	.+36     	; 0x1ea0 <show_day_week+0xec>
    1e7c:	89 2b       	or	r24, r25
    1e7e:	51 f0       	breq	.+20     	; 0x1e94 <show_day_week+0xe0>
    1e80:	1f c0       	rjmp	.+62     	; 0x1ec0 <show_day_week+0x10c>
    1e82:	85 30       	cpi	r24, 0x05	; 5
    1e84:	91 05       	cpc	r25, r1
    1e86:	a9 f0       	breq	.+42     	; 0x1eb2 <show_day_week+0xfe>
    1e88:	85 30       	cpi	r24, 0x05	; 5
    1e8a:	91 05       	cpc	r25, r1
    1e8c:	7c f0       	brlt	.+30     	; 0x1eac <show_day_week+0xf8>
    1e8e:	06 97       	sbiw	r24, 0x06	; 6
    1e90:	b9 f4       	brne	.+46     	; 0x1ec0 <show_day_week+0x10c>
    1e92:	12 c0       	rjmp	.+36     	; 0x1eb8 <show_day_week+0x104>
    1e94:	80 e1       	ldi	r24, 0x10	; 16
    1e96:	93 e0       	ldi	r25, 0x03	; 3
    1e98:	11 c0       	rjmp	.+34     	; 0x1ebc <show_day_week+0x108>
    1e9a:	8c e1       	ldi	r24, 0x1C	; 28
    1e9c:	93 e0       	ldi	r25, 0x03	; 3
    1e9e:	0e c0       	rjmp	.+28     	; 0x1ebc <show_day_week+0x108>
    1ea0:	8b e2       	ldi	r24, 0x2B	; 43
    1ea2:	93 e0       	ldi	r25, 0x03	; 3
    1ea4:	0b c0       	rjmp	.+22     	; 0x1ebc <show_day_week+0x108>
    1ea6:	84 e3       	ldi	r24, 0x34	; 52
    1ea8:	93 e0       	ldi	r25, 0x03	; 3
    1eaa:	08 c0       	rjmp	.+16     	; 0x1ebc <show_day_week+0x108>
    1eac:	8c e3       	ldi	r24, 0x3C	; 60
    1eae:	93 e0       	ldi	r25, 0x03	; 3
    1eb0:	05 c0       	rjmp	.+10     	; 0x1ebc <show_day_week+0x108>
    1eb2:	87 e4       	ldi	r24, 0x47	; 71
    1eb4:	93 e0       	ldi	r25, 0x03	; 3
    1eb6:	02 c0       	rjmp	.+4      	; 0x1ebc <show_day_week+0x108>
    1eb8:	80 e5       	ldi	r24, 0x50	; 80
    1eba:	93 e0       	ldi	r25, 0x03	; 3
    1ebc:	0e 94 90 05 	call	0xb20	; 0xb20 <lcd_put_str>
    1ec0:	1f 91       	pop	r17
    1ec2:	0f 91       	pop	r16
    1ec4:	08 95       	ret

00001ec6 <write_time_year>:
    1ec6:	ff 92       	push	r15
    1ec8:	0f 93       	push	r16
    1eca:	1f 93       	push	r17
    1ecc:	df 93       	push	r29
    1ece:	cf 93       	push	r28
    1ed0:	00 d0       	rcall	.+0      	; 0x1ed2 <write_time_year+0xc>
    1ed2:	cd b7       	in	r28, 0x3d	; 61
    1ed4:	de b7       	in	r29, 0x3e	; 62
    1ed6:	fc 01       	movw	r30, r24
    1ed8:	05 85       	ldd	r16, Z+13	; 0x0d
    1eda:	16 85       	ldd	r17, Z+14	; 0x0e
    1edc:	c8 01       	movw	r24, r16
    1ede:	64 e6       	ldi	r22, 0x64	; 100
    1ee0:	70 e0       	ldi	r23, 0x00	; 0
    1ee2:	0e 94 77 16 	call	0x2cee	; 0x2cee <__divmodhi4>
    1ee6:	86 2f       	mov	r24, r22
    1ee8:	0e 94 07 0c 	call	0x180e	; 0x180e <dec_to_bcd>
    1eec:	f8 2e       	mov	r15, r24
    1eee:	c8 01       	movw	r24, r16
    1ef0:	64 e6       	ldi	r22, 0x64	; 100
    1ef2:	70 e0       	ldi	r23, 0x00	; 0
    1ef4:	0e 94 77 16 	call	0x2cee	; 0x2cee <__divmodhi4>
    1ef8:	0e 94 07 0c 	call	0x180e	; 0x180e <dec_to_bcd>
    1efc:	f9 82       	std	Y+1, r15	; 0x01
    1efe:	8a 83       	std	Y+2, r24	; 0x02
    1f00:	80 ea       	ldi	r24, 0xA0	; 160
    1f02:	60 e1       	ldi	r22, 0x10	; 16
    1f04:	42 e0       	ldi	r20, 0x02	; 2
    1f06:	9e 01       	movw	r18, r28
    1f08:	2f 5f       	subi	r18, 0xFF	; 255
    1f0a:	3f 4f       	sbci	r19, 0xFF	; 255
    1f0c:	0e 94 50 08 	call	0x10a0	; 0x10a0 <I2C_write_data>
    1f10:	0f 90       	pop	r0
    1f12:	0f 90       	pop	r0
    1f14:	cf 91       	pop	r28
    1f16:	df 91       	pop	r29
    1f18:	1f 91       	pop	r17
    1f1a:	0f 91       	pop	r16
    1f1c:	ff 90       	pop	r15
    1f1e:	08 95       	ret

00001f20 <show_time>:
    1f20:	1f 93       	push	r17
    1f22:	10 91 d8 04 	lds	r17, 0x04D8
    1f26:	0e 94 3c 0e 	call	0x1c78	; 0x1c78 <read_time>
    1f2a:	80 91 d8 04 	lds	r24, 0x04D8
    1f2e:	18 17       	cp	r17, r24
    1f30:	68 f4       	brcc	.+26     	; 0x1f4c <show_time+0x2c>
    1f32:	80 91 e5 04 	lds	r24, 0x04E5
    1f36:	90 91 e6 04 	lds	r25, 0x04E6
    1f3a:	01 96       	adiw	r24, 0x01	; 1
    1f3c:	90 93 e6 04 	sts	0x04E6, r25
    1f40:	80 93 e5 04 	sts	0x04E5, r24
    1f44:	88 ed       	ldi	r24, 0xD8	; 216
    1f46:	94 e0       	ldi	r25, 0x04	; 4
    1f48:	0e 94 63 0f 	call	0x1ec6	; 0x1ec6 <write_time_year>
    1f4c:	80 e0       	ldi	r24, 0x00	; 0
    1f4e:	64 e0       	ldi	r22, 0x04	; 4
    1f50:	0e 94 f0 05 	call	0xbe0	; 0xbe0 <lcd_locate>
    1f54:	80 91 df 04 	lds	r24, 0x04DF
    1f58:	90 91 e0 04 	lds	r25, 0x04E0
    1f5c:	8a 30       	cpi	r24, 0x0A	; 10
    1f5e:	91 05       	cpc	r25, r1
    1f60:	44 f4       	brge	.+16     	; 0x1f72 <show_time+0x52>
    1f62:	8b ef       	ldi	r24, 0xFB	; 251
    1f64:	92 e0       	ldi	r25, 0x02	; 2
    1f66:	0e 94 90 05 	call	0xb20	; 0xb20 <lcd_put_str>
    1f6a:	80 91 df 04 	lds	r24, 0x04DF
    1f6e:	90 91 e0 04 	lds	r25, 0x04E0
    1f72:	0e 94 e9 07 	call	0xfd2	; 0xfd2 <lcd_int>
    1f76:	8d ef       	ldi	r24, 0xFD	; 253
    1f78:	92 e0       	ldi	r25, 0x02	; 2
    1f7a:	0e 94 90 05 	call	0xb20	; 0xb20 <lcd_put_str>
    1f7e:	80 91 dd 04 	lds	r24, 0x04DD
    1f82:	90 91 de 04 	lds	r25, 0x04DE
    1f86:	8a 30       	cpi	r24, 0x0A	; 10
    1f88:	91 05       	cpc	r25, r1
    1f8a:	44 f4       	brge	.+16     	; 0x1f9c <show_time+0x7c>
    1f8c:	8b ef       	ldi	r24, 0xFB	; 251
    1f8e:	92 e0       	ldi	r25, 0x02	; 2
    1f90:	0e 94 90 05 	call	0xb20	; 0xb20 <lcd_put_str>
    1f94:	80 91 dd 04 	lds	r24, 0x04DD
    1f98:	90 91 de 04 	lds	r25, 0x04DE
    1f9c:	0e 94 e9 07 	call	0xfd2	; 0xfd2 <lcd_int>
    1fa0:	8d ef       	ldi	r24, 0xFD	; 253
    1fa2:	92 e0       	ldi	r25, 0x02	; 2
    1fa4:	0e 94 90 05 	call	0xb20	; 0xb20 <lcd_put_str>
    1fa8:	80 91 db 04 	lds	r24, 0x04DB
    1fac:	90 91 dc 04 	lds	r25, 0x04DC
    1fb0:	8a 30       	cpi	r24, 0x0A	; 10
    1fb2:	91 05       	cpc	r25, r1
    1fb4:	44 f4       	brge	.+16     	; 0x1fc6 <show_time+0xa6>
    1fb6:	8b ef       	ldi	r24, 0xFB	; 251
    1fb8:	92 e0       	ldi	r25, 0x02	; 2
    1fba:	0e 94 90 05 	call	0xb20	; 0xb20 <lcd_put_str>
    1fbe:	80 91 db 04 	lds	r24, 0x04DB
    1fc2:	90 91 dc 04 	lds	r25, 0x04DC
    1fc6:	0e 94 e9 07 	call	0xfd2	; 0xfd2 <lcd_int>
    1fca:	81 e0       	ldi	r24, 0x01	; 1
    1fcc:	63 e0       	ldi	r22, 0x03	; 3
    1fce:	0e 94 f0 05 	call	0xbe0	; 0xbe0 <lcd_locate>
    1fd2:	80 91 e1 04 	lds	r24, 0x04E1
    1fd6:	90 91 e2 04 	lds	r25, 0x04E2
    1fda:	8a 30       	cpi	r24, 0x0A	; 10
    1fdc:	91 05       	cpc	r25, r1
    1fde:	44 f4       	brge	.+16     	; 0x1ff0 <show_time+0xd0>
    1fe0:	8b ef       	ldi	r24, 0xFB	; 251
    1fe2:	92 e0       	ldi	r25, 0x02	; 2
    1fe4:	0e 94 90 05 	call	0xb20	; 0xb20 <lcd_put_str>
    1fe8:	80 91 e1 04 	lds	r24, 0x04E1
    1fec:	90 91 e2 04 	lds	r25, 0x04E2
    1ff0:	0e 94 e9 07 	call	0xfd2	; 0xfd2 <lcd_int>
    1ff4:	8f ef       	ldi	r24, 0xFF	; 255
    1ff6:	92 e0       	ldi	r25, 0x02	; 2
    1ff8:	0e 94 90 05 	call	0xb20	; 0xb20 <lcd_put_str>
    1ffc:	80 91 e3 04 	lds	r24, 0x04E3
    2000:	90 91 e4 04 	lds	r25, 0x04E4
    2004:	8a 30       	cpi	r24, 0x0A	; 10
    2006:	91 05       	cpc	r25, r1
    2008:	44 f4       	brge	.+16     	; 0x201a <show_time+0xfa>
    200a:	8b ef       	ldi	r24, 0xFB	; 251
    200c:	92 e0       	ldi	r25, 0x02	; 2
    200e:	0e 94 90 05 	call	0xb20	; 0xb20 <lcd_put_str>
    2012:	80 91 e3 04 	lds	r24, 0x04E3
    2016:	90 91 e4 04 	lds	r25, 0x04E4
    201a:	0e 94 e9 07 	call	0xfd2	; 0xfd2 <lcd_int>
    201e:	8f ef       	ldi	r24, 0xFF	; 255
    2020:	92 e0       	ldi	r25, 0x02	; 2
    2022:	0e 94 90 05 	call	0xb20	; 0xb20 <lcd_put_str>
    2026:	80 91 e5 04 	lds	r24, 0x04E5
    202a:	90 91 e6 04 	lds	r25, 0x04E6
    202e:	0e 94 e9 07 	call	0xfd2	; 0xfd2 <lcd_int>
    2032:	1f 91       	pop	r17
    2034:	08 95       	ret

00002036 <write_time>:
    2036:	6f 92       	push	r6
    2038:	7f 92       	push	r7
    203a:	8f 92       	push	r8
    203c:	9f 92       	push	r9
    203e:	af 92       	push	r10
    2040:	bf 92       	push	r11
    2042:	cf 92       	push	r12
    2044:	df 92       	push	r13
    2046:	ef 92       	push	r14
    2048:	ff 92       	push	r15
    204a:	0f 93       	push	r16
    204c:	1f 93       	push	r17
    204e:	df 93       	push	r29
    2050:	cf 93       	push	r28
    2052:	00 d0       	rcall	.+0      	; 0x2054 <write_time+0x1e>
    2054:	00 d0       	rcall	.+0      	; 0x2056 <write_time+0x20>
    2056:	00 d0       	rcall	.+0      	; 0x2058 <write_time+0x22>
    2058:	cd b7       	in	r28, 0x3d	; 61
    205a:	de b7       	in	r29, 0x3e	; 62
    205c:	6c 01       	movw	r12, r24
    205e:	8e 01       	movw	r16, r28
    2060:	0f 5f       	subi	r16, 0xFF	; 255
    2062:	1f 4f       	sbci	r17, 0xFF	; 255
    2064:	86 e0       	ldi	r24, 0x06	; 6
    2066:	f8 01       	movw	r30, r16
    2068:	11 92       	st	Z+, r1
    206a:	8a 95       	dec	r24
    206c:	e9 f7       	brne	.-6      	; 0x2068 <write_time+0x32>
    206e:	0e 94 f8 05 	call	0xbf0	; 0xbf0 <lcd_cls>
    2072:	ee 24       	eor	r14, r14
    2074:	ff 24       	eor	r15, r15
    2076:	38 01       	movw	r6, r16
    2078:	15 e0       	ldi	r17, 0x05	; 5
    207a:	81 2e       	mov	r8, r17
    207c:	91 2c       	mov	r9, r1
    207e:	8c 0c       	add	r8, r12
    2080:	9d 1c       	adc	r9, r13
    2082:	b4 e0       	ldi	r27, 0x04	; 4
    2084:	ab 2e       	mov	r10, r27
    2086:	b1 2c       	mov	r11, r1
    2088:	ac 0c       	add	r10, r12
    208a:	bd 1c       	adc	r11, r13
    208c:	8e 2d       	mov	r24, r14
    208e:	84 30       	cpi	r24, 0x04	; 4
    2090:	b9 f4       	brne	.+46     	; 0x20c0 <write_time+0x8a>
    2092:	f5 01       	movw	r30, r10
    2094:	10 81       	ld	r17, Z
    2096:	81 2f       	mov	r24, r17
    2098:	82 95       	swap	r24
    209a:	86 95       	lsr	r24
    209c:	86 95       	lsr	r24
    209e:	83 70       	andi	r24, 0x03	; 3
    20a0:	0e 94 07 0c 	call	0x180e	; 0x180e <dec_to_bcd>
    20a4:	08 2f       	mov	r16, r24
    20a6:	02 95       	swap	r16
    20a8:	00 0f       	add	r16, r16
    20aa:	00 0f       	add	r16, r16
    20ac:	00 7c       	andi	r16, 0xC0	; 192
    20ae:	8d 81       	ldd	r24, Y+5	; 0x05
    20b0:	08 2b       	or	r16, r24
    20b2:	81 2f       	mov	r24, r17
    20b4:	8f 73       	andi	r24, 0x3F	; 63
    20b6:	0e 94 07 0c 	call	0x180e	; 0x180e <dec_to_bcd>
    20ba:	08 2b       	or	r16, r24
    20bc:	0d 83       	std	Y+5, r16	; 0x05
    20be:	21 c0       	rjmp	.+66     	; 0x2102 <write_time+0xcc>
    20c0:	85 30       	cpi	r24, 0x05	; 5
    20c2:	a9 f4       	brne	.+42     	; 0x20ee <write_time+0xb8>
    20c4:	f4 01       	movw	r30, r8
    20c6:	10 81       	ld	r17, Z
    20c8:	81 2f       	mov	r24, r17
    20ca:	82 95       	swap	r24
    20cc:	86 95       	lsr	r24
    20ce:	87 70       	andi	r24, 0x07	; 7
    20d0:	0e 94 07 0c 	call	0x180e	; 0x180e <dec_to_bcd>
    20d4:	08 2f       	mov	r16, r24
    20d6:	02 95       	swap	r16
    20d8:	00 0f       	add	r16, r16
    20da:	00 7e       	andi	r16, 0xE0	; 224
    20dc:	8e 81       	ldd	r24, Y+6	; 0x06
    20de:	08 2b       	or	r16, r24
    20e0:	81 2f       	mov	r24, r17
    20e2:	8f 71       	andi	r24, 0x1F	; 31
    20e4:	0e 94 07 0c 	call	0x180e	; 0x180e <dec_to_bcd>
    20e8:	08 2b       	or	r16, r24
    20ea:	0e 83       	std	Y+6, r16	; 0x06
    20ec:	0a c0       	rjmp	.+20     	; 0x2102 <write_time+0xcc>
    20ee:	f6 01       	movw	r30, r12
    20f0:	ee 0d       	add	r30, r14
    20f2:	ff 1d       	adc	r31, r15
    20f4:	80 81       	ld	r24, Z
    20f6:	0e 94 07 0c 	call	0x180e	; 0x180e <dec_to_bcd>
    20fa:	f3 01       	movw	r30, r6
    20fc:	ee 0d       	add	r30, r14
    20fe:	ff 1d       	adc	r31, r15
    2100:	80 83       	st	Z, r24
    2102:	08 94       	sec
    2104:	e1 1c       	adc	r14, r1
    2106:	f1 1c       	adc	r15, r1
    2108:	f6 e0       	ldi	r31, 0x06	; 6
    210a:	ef 16       	cp	r14, r31
    210c:	f1 04       	cpc	r15, r1
    210e:	09 f0       	breq	.+2      	; 0x2112 <write_time+0xdc>
    2110:	bd cf       	rjmp	.-134    	; 0x208c <write_time+0x56>
    2112:	80 ea       	ldi	r24, 0xA0	; 160
    2114:	61 e0       	ldi	r22, 0x01	; 1
    2116:	46 e0       	ldi	r20, 0x06	; 6
    2118:	9e 01       	movw	r18, r28
    211a:	2f 5f       	subi	r18, 0xFF	; 255
    211c:	3f 4f       	sbci	r19, 0xFF	; 255
    211e:	0e 94 50 08 	call	0x10a0	; 0x10a0 <I2C_write_data>
    2122:	88 ed       	ldi	r24, 0xD8	; 216
    2124:	94 e0       	ldi	r25, 0x04	; 4
    2126:	0e 94 63 0f 	call	0x1ec6	; 0x1ec6 <write_time_year>
    212a:	26 96       	adiw	r28, 0x06	; 6
    212c:	0f b6       	in	r0, 0x3f	; 63
    212e:	f8 94       	cli
    2130:	de bf       	out	0x3e, r29	; 62
    2132:	0f be       	out	0x3f, r0	; 63
    2134:	cd bf       	out	0x3d, r28	; 61
    2136:	cf 91       	pop	r28
    2138:	df 91       	pop	r29
    213a:	1f 91       	pop	r17
    213c:	0f 91       	pop	r16
    213e:	ff 90       	pop	r15
    2140:	ef 90       	pop	r14
    2142:	df 90       	pop	r13
    2144:	cf 90       	pop	r12
    2146:	bf 90       	pop	r11
    2148:	af 90       	pop	r10
    214a:	9f 90       	pop	r9
    214c:	8f 90       	pop	r8
    214e:	7f 90       	pop	r7
    2150:	6f 90       	pop	r6
    2152:	08 95       	ret

00002154 <set_time>:
    2154:	2f 92       	push	r2
    2156:	3f 92       	push	r3
    2158:	4f 92       	push	r4
    215a:	5f 92       	push	r5
    215c:	6f 92       	push	r6
    215e:	7f 92       	push	r7
    2160:	8f 92       	push	r8
    2162:	9f 92       	push	r9
    2164:	af 92       	push	r10
    2166:	bf 92       	push	r11
    2168:	cf 92       	push	r12
    216a:	df 92       	push	r13
    216c:	ef 92       	push	r14
    216e:	ff 92       	push	r15
    2170:	0f 93       	push	r16
    2172:	1f 93       	push	r17
    2174:	df 93       	push	r29
    2176:	cf 93       	push	r28
    2178:	cd b7       	in	r28, 0x3d	; 61
    217a:	de b7       	in	r29, 0x3e	; 62
    217c:	2a 97       	sbiw	r28, 0x0a	; 10
    217e:	0f b6       	in	r0, 0x3f	; 63
    2180:	f8 94       	cli
    2182:	de bf       	out	0x3e, r29	; 62
    2184:	0f be       	out	0x3f, r0	; 63
    2186:	cd bf       	out	0x3d, r28	; 61
    2188:	0e 94 f8 05 	call	0xbf0	; 0xbf0 <lcd_cls>
    218c:	00 e0       	ldi	r16, 0x00	; 0
    218e:	10 e0       	ldi	r17, 0x00	; 0
    2190:	ce 01       	movw	r24, r28
    2192:	09 96       	adiw	r24, 0x09	; 9
    2194:	9a 87       	std	Y+10, r25	; 0x0a
    2196:	89 87       	std	Y+9, r24	; 0x09
    2198:	6b e3       	ldi	r22, 0x3B	; 59
    219a:	66 2e       	mov	r6, r22
    219c:	71 2c       	mov	r7, r1
    219e:	5c e1       	ldi	r21, 0x1C	; 28
    21a0:	c5 2e       	mov	r12, r21
    21a2:	d1 2c       	mov	r13, r1
    21a4:	4d e1       	ldi	r20, 0x1D	; 29
    21a6:	a4 2e       	mov	r10, r20
    21a8:	b1 2c       	mov	r11, r1
    21aa:	3e e1       	ldi	r19, 0x1E	; 30
    21ac:	83 2e       	mov	r8, r19
    21ae:	91 2c       	mov	r9, r1
    21b0:	21 e0       	ldi	r18, 0x01	; 1
    21b2:	e2 2e       	mov	r14, r18
    21b4:	f1 2c       	mov	r15, r1
    21b6:	19 c0       	rjmp	.+50     	; 0x21ea <set_time+0x96>
    21b8:	80 e0       	ldi	r24, 0x00	; 0
    21ba:	62 e0       	ldi	r22, 0x02	; 2
    21bc:	0e 94 f0 05 	call	0xbe0	; 0xbe0 <lcd_locate>
    21c0:	8a e9       	ldi	r24, 0x9A	; 154
    21c2:	90 e0       	ldi	r25, 0x00	; 0
    21c4:	0e 94 a2 05 	call	0xb44	; 0xb44 <lcd_str_P>
    21c8:	88 e0       	ldi	r24, 0x08	; 8
    21ca:	0e 94 24 04 	call	0x848	; 0x848 <Read_Input_Switch>
    21ce:	88 23       	and	r24, r24
    21d0:	21 f0       	breq	.+8      	; 0x21da <set_time+0x86>
    21d2:	0e 94 f8 05 	call	0xbf0	; 0xbf0 <lcd_cls>
    21d6:	01 e0       	ldi	r16, 0x01	; 1
    21d8:	0a c0       	rjmp	.+20     	; 0x21ee <set_time+0x9a>
    21da:	80 e1       	ldi	r24, 0x10	; 16
    21dc:	0e 94 24 04 	call	0x848	; 0x848 <Read_Input_Switch>
    21e0:	88 23       	and	r24, r24
    21e2:	51 f3       	breq	.-44     	; 0x21b8 <set_time+0x64>
    21e4:	0e 94 f8 05 	call	0xbf0	; 0xbf0 <lcd_cls>
    21e8:	af c2       	rjmp	.+1374   	; 0x2748 <set_time+0x5f4>
    21ea:	00 23       	and	r16, r16
    21ec:	29 f3       	breq	.-54     	; 0x21b8 <set_time+0x64>
    21ee:	fe 01       	movw	r30, r28
    21f0:	31 96       	adiw	r30, 0x01	; 1
    21f2:	91 e0       	ldi	r25, 0x01	; 1
    21f4:	91 93       	st	Z+, r25
    21f6:	89 85       	ldd	r24, Y+9	; 0x09
    21f8:	9a 85       	ldd	r25, Y+10	; 0x0a
    21fa:	e8 17       	cp	r30, r24
    21fc:	f9 07       	cpc	r31, r25
    21fe:	c9 f7       	brne	.-14     	; 0x21f2 <set_time+0x9e>
    2200:	81 2f       	mov	r24, r17
    2202:	0e 94 c2 0d 	call	0x1b84	; 0x1b84 <show_set_time>
    2206:	94 e3       	ldi	r25, 0x34	; 52
    2208:	49 2e       	mov	r4, r25
    220a:	98 e0       	ldi	r25, 0x08	; 8
    220c:	59 2e       	mov	r5, r25
    220e:	8c ed       	ldi	r24, 0xDC	; 220
    2210:	28 2e       	mov	r2, r24
    2212:	87 e0       	ldi	r24, 0x07	; 7
    2214:	38 2e       	mov	r3, r24
    2216:	65 c2       	rjmp	.+1226   	; 0x26e2 <set_time+0x58e>
    2218:	12 30       	cpi	r17, 0x02	; 2
    221a:	09 f4       	brne	.+2      	; 0x221e <set_time+0xca>
    221c:	81 c0       	rjmp	.+258    	; 0x2320 <set_time+0x1cc>
    221e:	13 30       	cpi	r17, 0x03	; 3
    2220:	30 f4       	brcc	.+12     	; 0x222e <set_time+0xda>
    2222:	11 23       	and	r17, r17
    2224:	71 f0       	breq	.+28     	; 0x2242 <set_time+0xee>
    2226:	11 30       	cpi	r17, 0x01	; 1
    2228:	09 f0       	breq	.+2      	; 0x222c <set_time+0xd8>
    222a:	5b c2       	rjmp	.+1206   	; 0x26e2 <set_time+0x58e>
    222c:	40 c0       	rjmp	.+128    	; 0x22ae <set_time+0x15a>
    222e:	14 30       	cpi	r17, 0x04	; 4
    2230:	09 f4       	brne	.+2      	; 0x2234 <set_time+0xe0>
    2232:	75 c1       	rjmp	.+746    	; 0x251e <set_time+0x3ca>
    2234:	14 30       	cpi	r17, 0x04	; 4
    2236:	08 f4       	brcc	.+2      	; 0x223a <set_time+0xe6>
    2238:	b1 c0       	rjmp	.+354    	; 0x239c <set_time+0x248>
    223a:	15 30       	cpi	r17, 0x05	; 5
    223c:	09 f0       	breq	.+2      	; 0x2240 <set_time+0xec>
    223e:	51 c2       	rjmp	.+1186   	; 0x26e2 <set_time+0x58e>
    2240:	f5 c1       	rjmp	.+1002   	; 0x262c <set_time+0x4d8>
    2242:	80 e4       	ldi	r24, 0x40	; 64
    2244:	0e 94 24 04 	call	0x848	; 0x848 <Read_Input_Switch>
    2248:	88 23       	and	r24, r24
    224a:	81 f0       	breq	.+32     	; 0x226c <set_time+0x118>
    224c:	80 91 df 04 	lds	r24, 0x04DF
    2250:	90 91 e0 04 	lds	r25, 0x04E0
    2254:	01 96       	adiw	r24, 0x01	; 1
    2256:	90 93 e0 04 	sts	0x04E0, r25
    225a:	80 93 df 04 	sts	0x04DF, r24
    225e:	48 97       	sbiw	r24, 0x18	; 24
    2260:	dc f0       	brlt	.+54     	; 0x2298 <set_time+0x144>
    2262:	10 92 e0 04 	sts	0x04E0, r1
    2266:	10 92 df 04 	sts	0x04DF, r1
    226a:	16 c0       	rjmp	.+44     	; 0x2298 <set_time+0x144>
    226c:	80 e2       	ldi	r24, 0x20	; 32
    226e:	0e 94 24 04 	call	0x848	; 0x848 <Read_Input_Switch>
    2272:	88 23       	and	r24, r24
    2274:	a1 f0       	breq	.+40     	; 0x229e <set_time+0x14a>
    2276:	80 91 df 04 	lds	r24, 0x04DF
    227a:	90 91 e0 04 	lds	r25, 0x04E0
    227e:	01 97       	sbiw	r24, 0x01	; 1
    2280:	90 93 e0 04 	sts	0x04E0, r25
    2284:	80 93 df 04 	sts	0x04DF, r24
    2288:	97 ff       	sbrs	r25, 7
    228a:	06 c0       	rjmp	.+12     	; 0x2298 <set_time+0x144>
    228c:	87 e1       	ldi	r24, 0x17	; 23
    228e:	90 e0       	ldi	r25, 0x00	; 0
    2290:	90 93 e0 04 	sts	0x04E0, r25
    2294:	80 93 df 04 	sts	0x04DF, r24
    2298:	80 e0       	ldi	r24, 0x00	; 0
    229a:	0e 94 c2 0d 	call	0x1b84	; 0x1b84 <show_set_time>
    229e:	80 e1       	ldi	r24, 0x10	; 16
    22a0:	0e 94 24 04 	call	0x848	; 0x848 <Read_Input_Switch>
    22a4:	88 23       	and	r24, r24
    22a6:	09 f0       	breq	.+2      	; 0x22aa <set_time+0x156>
    22a8:	6c c0       	rjmp	.+216    	; 0x2382 <set_time+0x22e>
    22aa:	88 e0       	ldi	r24, 0x08	; 8
    22ac:	b4 c1       	rjmp	.+872    	; 0x2616 <set_time+0x4c2>
    22ae:	80 e4       	ldi	r24, 0x40	; 64
    22b0:	0e 94 24 04 	call	0x848	; 0x848 <Read_Input_Switch>
    22b4:	88 23       	and	r24, r24
    22b6:	81 f0       	breq	.+32     	; 0x22d8 <set_time+0x184>
    22b8:	80 91 dd 04 	lds	r24, 0x04DD
    22bc:	90 91 de 04 	lds	r25, 0x04DE
    22c0:	01 96       	adiw	r24, 0x01	; 1
    22c2:	90 93 de 04 	sts	0x04DE, r25
    22c6:	80 93 dd 04 	sts	0x04DD, r24
    22ca:	cc 97       	sbiw	r24, 0x3c	; 60
    22cc:	cc f0       	brlt	.+50     	; 0x2300 <set_time+0x1ac>
    22ce:	10 92 de 04 	sts	0x04DE, r1
    22d2:	10 92 dd 04 	sts	0x04DD, r1
    22d6:	14 c0       	rjmp	.+40     	; 0x2300 <set_time+0x1ac>
    22d8:	80 e2       	ldi	r24, 0x20	; 32
    22da:	0e 94 24 04 	call	0x848	; 0x848 <Read_Input_Switch>
    22de:	88 23       	and	r24, r24
    22e0:	91 f0       	breq	.+36     	; 0x2306 <set_time+0x1b2>
    22e2:	80 91 dd 04 	lds	r24, 0x04DD
    22e6:	90 91 de 04 	lds	r25, 0x04DE
    22ea:	01 97       	sbiw	r24, 0x01	; 1
    22ec:	90 93 de 04 	sts	0x04DE, r25
    22f0:	80 93 dd 04 	sts	0x04DD, r24
    22f4:	97 ff       	sbrs	r25, 7
    22f6:	04 c0       	rjmp	.+8      	; 0x2300 <set_time+0x1ac>
    22f8:	70 92 de 04 	sts	0x04DE, r7
    22fc:	60 92 dd 04 	sts	0x04DD, r6
    2300:	81 e0       	ldi	r24, 0x01	; 1
    2302:	0e 94 c2 0d 	call	0x1b84	; 0x1b84 <show_set_time>
    2306:	88 e0       	ldi	r24, 0x08	; 8
    2308:	0e 94 24 04 	call	0x848	; 0x848 <Read_Input_Switch>
    230c:	88 23       	and	r24, r24
    230e:	09 f0       	breq	.+2      	; 0x2312 <set_time+0x1be>
    2310:	e3 c1       	rjmp	.+966    	; 0x26d8 <set_time+0x584>
    2312:	80 e1       	ldi	r24, 0x10	; 16
    2314:	0e 94 24 04 	call	0x848	; 0x848 <Read_Input_Switch>
    2318:	88 23       	and	r24, r24
    231a:	09 f4       	brne	.+2      	; 0x231e <set_time+0x1ca>
    231c:	e2 c1       	rjmp	.+964    	; 0x26e2 <set_time+0x58e>
    231e:	f2 c0       	rjmp	.+484    	; 0x2504 <set_time+0x3b0>
    2320:	80 e4       	ldi	r24, 0x40	; 64
    2322:	0e 94 24 04 	call	0x848	; 0x848 <Read_Input_Switch>
    2326:	88 23       	and	r24, r24
    2328:	81 f0       	breq	.+32     	; 0x234a <set_time+0x1f6>
    232a:	80 91 db 04 	lds	r24, 0x04DB
    232e:	90 91 dc 04 	lds	r25, 0x04DC
    2332:	01 96       	adiw	r24, 0x01	; 1
    2334:	90 93 dc 04 	sts	0x04DC, r25
    2338:	80 93 db 04 	sts	0x04DB, r24
    233c:	cc 97       	sbiw	r24, 0x3c	; 60
    233e:	cc f0       	brlt	.+50     	; 0x2372 <set_time+0x21e>
    2340:	10 92 dc 04 	sts	0x04DC, r1
    2344:	10 92 db 04 	sts	0x04DB, r1
    2348:	14 c0       	rjmp	.+40     	; 0x2372 <set_time+0x21e>
    234a:	80 e2       	ldi	r24, 0x20	; 32
    234c:	0e 94 24 04 	call	0x848	; 0x848 <Read_Input_Switch>
    2350:	88 23       	and	r24, r24
    2352:	91 f0       	breq	.+36     	; 0x2378 <set_time+0x224>
    2354:	80 91 db 04 	lds	r24, 0x04DB
    2358:	90 91 dc 04 	lds	r25, 0x04DC
    235c:	01 97       	sbiw	r24, 0x01	; 1
    235e:	90 93 dc 04 	sts	0x04DC, r25
    2362:	80 93 db 04 	sts	0x04DB, r24
    2366:	97 ff       	sbrs	r25, 7
    2368:	04 c0       	rjmp	.+8      	; 0x2372 <set_time+0x21e>
    236a:	70 92 dc 04 	sts	0x04DC, r7
    236e:	60 92 db 04 	sts	0x04DB, r6
    2372:	82 e0       	ldi	r24, 0x02	; 2
    2374:	0e 94 c2 0d 	call	0x1b84	; 0x1b84 <show_set_time>
    2378:	88 e0       	ldi	r24, 0x08	; 8
    237a:	0e 94 24 04 	call	0x848	; 0x848 <Read_Input_Switch>
    237e:	88 23       	and	r24, r24
    2380:	31 f0       	breq	.+12     	; 0x238e <set_time+0x23a>
    2382:	82 e0       	ldi	r24, 0x02	; 2
    2384:	90 e0       	ldi	r25, 0x00	; 0
    2386:	0e 94 d1 04 	call	0x9a2	; 0x9a2 <Delay_100ms>
    238a:	11 e0       	ldi	r17, 0x01	; 1
    238c:	aa c1       	rjmp	.+852    	; 0x26e2 <set_time+0x58e>
    238e:	80 e1       	ldi	r24, 0x10	; 16
    2390:	0e 94 24 04 	call	0x848	; 0x848 <Read_Input_Switch>
    2394:	88 23       	and	r24, r24
    2396:	09 f4       	brne	.+2      	; 0x239a <set_time+0x246>
    2398:	a4 c1       	rjmp	.+840    	; 0x26e2 <set_time+0x58e>
    239a:	36 c1       	rjmp	.+620    	; 0x2608 <set_time+0x4b4>
    239c:	88 ed       	ldi	r24, 0xD8	; 216
    239e:	94 e0       	ldi	r25, 0x04	; 4
    23a0:	0e 94 db 0c 	call	0x19b6	; 0x19b6 <czy_przestepny>
    23a4:	80 e4       	ldi	r24, 0x40	; 64
    23a6:	0e 94 24 04 	call	0x848	; 0x848 <Read_Input_Switch>
    23aa:	88 23       	and	r24, r24
    23ac:	09 f4       	brne	.+2      	; 0x23b0 <set_time+0x25c>
    23ae:	4c c0       	rjmp	.+152    	; 0x2448 <set_time+0x2f4>
    23b0:	20 91 e1 04 	lds	r18, 0x04E1
    23b4:	30 91 e2 04 	lds	r19, 0x04E2
    23b8:	2f 5f       	subi	r18, 0xFF	; 255
    23ba:	3f 4f       	sbci	r19, 0xFF	; 255
    23bc:	30 93 e2 04 	sts	0x04E2, r19
    23c0:	20 93 e1 04 	sts	0x04E1, r18
    23c4:	80 91 e3 04 	lds	r24, 0x04E3
    23c8:	90 91 e4 04 	lds	r25, 0x04E4
    23cc:	81 30       	cpi	r24, 0x01	; 1
    23ce:	91 05       	cpc	r25, r1
    23d0:	91 f0       	breq	.+36     	; 0x23f6 <set_time+0x2a2>
    23d2:	83 30       	cpi	r24, 0x03	; 3
    23d4:	91 05       	cpc	r25, r1
    23d6:	79 f0       	breq	.+30     	; 0x23f6 <set_time+0x2a2>
    23d8:	85 30       	cpi	r24, 0x05	; 5
    23da:	91 05       	cpc	r25, r1
    23dc:	61 f0       	breq	.+24     	; 0x23f6 <set_time+0x2a2>
    23de:	87 30       	cpi	r24, 0x07	; 7
    23e0:	91 05       	cpc	r25, r1
    23e2:	49 f0       	breq	.+18     	; 0x23f6 <set_time+0x2a2>
    23e4:	88 30       	cpi	r24, 0x08	; 8
    23e6:	91 05       	cpc	r25, r1
    23e8:	31 f0       	breq	.+12     	; 0x23f6 <set_time+0x2a2>
    23ea:	8a 30       	cpi	r24, 0x0A	; 10
    23ec:	91 05       	cpc	r25, r1
    23ee:	19 f0       	breq	.+6      	; 0x23f6 <set_time+0x2a2>
    23f0:	8c 30       	cpi	r24, 0x0C	; 12
    23f2:	91 05       	cpc	r25, r1
    23f4:	19 f4       	brne	.+6      	; 0x23fc <set_time+0x2a8>
    23f6:	20 32       	cpi	r18, 0x20	; 32
    23f8:	31 05       	cpc	r19, r1
    23fa:	0c f5       	brge	.+66     	; 0x243e <set_time+0x2ea>
    23fc:	84 30       	cpi	r24, 0x04	; 4
    23fe:	91 05       	cpc	r25, r1
    2400:	49 f0       	breq	.+18     	; 0x2414 <set_time+0x2c0>
    2402:	86 30       	cpi	r24, 0x06	; 6
    2404:	91 05       	cpc	r25, r1
    2406:	31 f0       	breq	.+12     	; 0x2414 <set_time+0x2c0>
    2408:	89 30       	cpi	r24, 0x09	; 9
    240a:	91 05       	cpc	r25, r1
    240c:	19 f0       	breq	.+6      	; 0x2414 <set_time+0x2c0>
    240e:	8b 30       	cpi	r24, 0x0B	; 11
    2410:	91 05       	cpc	r25, r1
    2412:	19 f4       	brne	.+6      	; 0x241a <set_time+0x2c6>
    2414:	2f 31       	cpi	r18, 0x1F	; 31
    2416:	31 05       	cpc	r19, r1
    2418:	94 f4       	brge	.+36     	; 0x243e <set_time+0x2ea>
    241a:	02 97       	sbiw	r24, 0x02	; 2
    241c:	09 f0       	breq	.+2      	; 0x2420 <set_time+0x2cc>
    241e:	6a c0       	rjmp	.+212    	; 0x24f4 <set_time+0x3a0>
    2420:	80 91 d8 04 	lds	r24, 0x04D8
    2424:	88 23       	and	r24, r24
    2426:	19 f4       	brne	.+6      	; 0x242e <set_time+0x2da>
    2428:	2e 31       	cpi	r18, 0x1E	; 30
    242a:	31 05       	cpc	r19, r1
    242c:	44 f4       	brge	.+16     	; 0x243e <set_time+0x2ea>
    242e:	81 50       	subi	r24, 0x01	; 1
    2430:	83 30       	cpi	r24, 0x03	; 3
    2432:	08 f0       	brcs	.+2      	; 0x2436 <set_time+0x2e2>
    2434:	5f c0       	rjmp	.+190    	; 0x24f4 <set_time+0x3a0>
    2436:	2d 31       	cpi	r18, 0x1D	; 29
    2438:	31 05       	cpc	r19, r1
    243a:	0c f4       	brge	.+2      	; 0x243e <set_time+0x2ea>
    243c:	5b c0       	rjmp	.+182    	; 0x24f4 <set_time+0x3a0>
    243e:	f0 92 e2 04 	sts	0x04E2, r15
    2442:	e0 92 e1 04 	sts	0x04E1, r14
    2446:	56 c0       	rjmp	.+172    	; 0x24f4 <set_time+0x3a0>
    2448:	80 e2       	ldi	r24, 0x20	; 32
    244a:	0e 94 24 04 	call	0x848	; 0x848 <Read_Input_Switch>
    244e:	88 23       	and	r24, r24
    2450:	09 f4       	brne	.+2      	; 0x2454 <set_time+0x300>
    2452:	53 c0       	rjmp	.+166    	; 0x24fa <set_time+0x3a6>
    2454:	80 91 e1 04 	lds	r24, 0x04E1
    2458:	90 91 e2 04 	lds	r25, 0x04E2
    245c:	01 97       	sbiw	r24, 0x01	; 1
    245e:	90 93 e2 04 	sts	0x04E2, r25
    2462:	80 93 e1 04 	sts	0x04E1, r24
    2466:	18 16       	cp	r1, r24
    2468:	19 06       	cpc	r1, r25
    246a:	0c f4       	brge	.+2      	; 0x246e <set_time+0x31a>
    246c:	43 c0       	rjmp	.+134    	; 0x24f4 <set_time+0x3a0>
    246e:	80 91 e3 04 	lds	r24, 0x04E3
    2472:	90 91 e4 04 	lds	r25, 0x04E4
    2476:	81 30       	cpi	r24, 0x01	; 1
    2478:	91 05       	cpc	r25, r1
    247a:	91 f0       	breq	.+36     	; 0x24a0 <set_time+0x34c>
    247c:	83 30       	cpi	r24, 0x03	; 3
    247e:	91 05       	cpc	r25, r1
    2480:	79 f0       	breq	.+30     	; 0x24a0 <set_time+0x34c>
    2482:	85 30       	cpi	r24, 0x05	; 5
    2484:	91 05       	cpc	r25, r1
    2486:	61 f0       	breq	.+24     	; 0x24a0 <set_time+0x34c>
    2488:	87 30       	cpi	r24, 0x07	; 7
    248a:	91 05       	cpc	r25, r1
    248c:	49 f0       	breq	.+18     	; 0x24a0 <set_time+0x34c>
    248e:	88 30       	cpi	r24, 0x08	; 8
    2490:	91 05       	cpc	r25, r1
    2492:	31 f0       	breq	.+12     	; 0x24a0 <set_time+0x34c>
    2494:	8a 30       	cpi	r24, 0x0A	; 10
    2496:	91 05       	cpc	r25, r1
    2498:	19 f0       	breq	.+6      	; 0x24a0 <set_time+0x34c>
    249a:	8c 30       	cpi	r24, 0x0C	; 12
    249c:	91 05       	cpc	r25, r1
    249e:	39 f4       	brne	.+14     	; 0x24ae <set_time+0x35a>
    24a0:	8f e1       	ldi	r24, 0x1F	; 31
    24a2:	90 e0       	ldi	r25, 0x00	; 0
    24a4:	90 93 e2 04 	sts	0x04E2, r25
    24a8:	80 93 e1 04 	sts	0x04E1, r24
    24ac:	23 c0       	rjmp	.+70     	; 0x24f4 <set_time+0x3a0>
    24ae:	84 30       	cpi	r24, 0x04	; 4
    24b0:	91 05       	cpc	r25, r1
    24b2:	49 f0       	breq	.+18     	; 0x24c6 <set_time+0x372>
    24b4:	86 30       	cpi	r24, 0x06	; 6
    24b6:	91 05       	cpc	r25, r1
    24b8:	31 f0       	breq	.+12     	; 0x24c6 <set_time+0x372>
    24ba:	89 30       	cpi	r24, 0x09	; 9
    24bc:	91 05       	cpc	r25, r1
    24be:	19 f0       	breq	.+6      	; 0x24c6 <set_time+0x372>
    24c0:	8b 30       	cpi	r24, 0x0B	; 11
    24c2:	91 05       	cpc	r25, r1
    24c4:	29 f4       	brne	.+10     	; 0x24d0 <set_time+0x37c>
    24c6:	90 92 e2 04 	sts	0x04E2, r9
    24ca:	80 92 e1 04 	sts	0x04E1, r8
    24ce:	12 c0       	rjmp	.+36     	; 0x24f4 <set_time+0x3a0>
    24d0:	02 97       	sbiw	r24, 0x02	; 2
    24d2:	81 f4       	brne	.+32     	; 0x24f4 <set_time+0x3a0>
    24d4:	80 91 d8 04 	lds	r24, 0x04D8
    24d8:	88 23       	and	r24, r24
    24da:	29 f4       	brne	.+10     	; 0x24e6 <set_time+0x392>
    24dc:	b0 92 e2 04 	sts	0x04E2, r11
    24e0:	a0 92 e1 04 	sts	0x04E1, r10
    24e4:	07 c0       	rjmp	.+14     	; 0x24f4 <set_time+0x3a0>
    24e6:	81 50       	subi	r24, 0x01	; 1
    24e8:	83 30       	cpi	r24, 0x03	; 3
    24ea:	20 f4       	brcc	.+8      	; 0x24f4 <set_time+0x3a0>
    24ec:	d0 92 e2 04 	sts	0x04E2, r13
    24f0:	c0 92 e1 04 	sts	0x04E1, r12
    24f4:	83 e0       	ldi	r24, 0x03	; 3
    24f6:	0e 94 c2 0d 	call	0x1b84	; 0x1b84 <show_set_time>
    24fa:	88 e0       	ldi	r24, 0x08	; 8
    24fc:	0e 94 24 04 	call	0x848	; 0x848 <Read_Input_Switch>
    2500:	88 23       	and	r24, r24
    2502:	31 f0       	breq	.+12     	; 0x2510 <set_time+0x3bc>
    2504:	82 e0       	ldi	r24, 0x02	; 2
    2506:	90 e0       	ldi	r25, 0x00	; 0
    2508:	0e 94 d1 04 	call	0x9a2	; 0x9a2 <Delay_100ms>
    250c:	12 e0       	ldi	r17, 0x02	; 2
    250e:	e9 c0       	rjmp	.+466    	; 0x26e2 <set_time+0x58e>
    2510:	80 e1       	ldi	r24, 0x10	; 16
    2512:	0e 94 24 04 	call	0x848	; 0x848 <Read_Input_Switch>
    2516:	88 23       	and	r24, r24
    2518:	09 f4       	brne	.+2      	; 0x251c <set_time+0x3c8>
    251a:	e3 c0       	rjmp	.+454    	; 0x26e2 <set_time+0x58e>
    251c:	d2 c0       	rjmp	.+420    	; 0x26c2 <set_time+0x56e>
    251e:	88 ed       	ldi	r24, 0xD8	; 216
    2520:	94 e0       	ldi	r25, 0x04	; 4
    2522:	0e 94 db 0c 	call	0x19b6	; 0x19b6 <czy_przestepny>
    2526:	80 e4       	ldi	r24, 0x40	; 64
    2528:	0e 94 24 04 	call	0x848	; 0x848 <Read_Input_Switch>
    252c:	88 23       	and	r24, r24
    252e:	89 f0       	breq	.+34     	; 0x2552 <set_time+0x3fe>
    2530:	80 91 e3 04 	lds	r24, 0x04E3
    2534:	90 91 e4 04 	lds	r25, 0x04E4
    2538:	01 96       	adiw	r24, 0x01	; 1
    253a:	90 93 e4 04 	sts	0x04E4, r25
    253e:	80 93 e3 04 	sts	0x04E3, r24
    2542:	0d 97       	sbiw	r24, 0x0d	; 13
    2544:	0c f4       	brge	.+2      	; 0x2548 <set_time+0x3f4>
    2546:	58 c0       	rjmp	.+176    	; 0x25f8 <set_time+0x4a4>
    2548:	f0 92 e4 04 	sts	0x04E4, r15
    254c:	e0 92 e3 04 	sts	0x04E3, r14
    2550:	53 c0       	rjmp	.+166    	; 0x25f8 <set_time+0x4a4>
    2552:	80 e2       	ldi	r24, 0x20	; 32
    2554:	0e 94 24 04 	call	0x848	; 0x848 <Read_Input_Switch>
    2558:	88 23       	and	r24, r24
    255a:	a1 f0       	breq	.+40     	; 0x2584 <set_time+0x430>
    255c:	80 91 e3 04 	lds	r24, 0x04E3
    2560:	90 91 e4 04 	lds	r25, 0x04E4
    2564:	01 97       	sbiw	r24, 0x01	; 1
    2566:	90 93 e4 04 	sts	0x04E4, r25
    256a:	80 93 e3 04 	sts	0x04E3, r24
    256e:	18 16       	cp	r1, r24
    2570:	19 06       	cpc	r1, r25
    2572:	0c f4       	brge	.+2      	; 0x2576 <set_time+0x422>
    2574:	41 c0       	rjmp	.+130    	; 0x25f8 <set_time+0x4a4>
    2576:	8c e0       	ldi	r24, 0x0C	; 12
    2578:	90 e0       	ldi	r25, 0x00	; 0
    257a:	90 93 e4 04 	sts	0x04E4, r25
    257e:	80 93 e3 04 	sts	0x04E3, r24
    2582:	3a c0       	rjmp	.+116    	; 0x25f8 <set_time+0x4a4>
    2584:	20 91 e3 04 	lds	r18, 0x04E3
    2588:	30 91 e4 04 	lds	r19, 0x04E4
    258c:	24 30       	cpi	r18, 0x04	; 4
    258e:	31 05       	cpc	r19, r1
    2590:	49 f0       	breq	.+18     	; 0x25a4 <set_time+0x450>
    2592:	26 30       	cpi	r18, 0x06	; 6
    2594:	31 05       	cpc	r19, r1
    2596:	31 f0       	breq	.+12     	; 0x25a4 <set_time+0x450>
    2598:	29 30       	cpi	r18, 0x09	; 9
    259a:	31 05       	cpc	r19, r1
    259c:	19 f0       	breq	.+6      	; 0x25a4 <set_time+0x450>
    259e:	2b 30       	cpi	r18, 0x0B	; 11
    25a0:	31 05       	cpc	r19, r1
    25a2:	59 f4       	brne	.+22     	; 0x25ba <set_time+0x466>
    25a4:	80 91 e1 04 	lds	r24, 0x04E1
    25a8:	90 91 e2 04 	lds	r25, 0x04E2
    25ac:	4f 97       	sbiw	r24, 0x1f	; 31
    25ae:	2c f0       	brlt	.+10     	; 0x25ba <set_time+0x466>
    25b0:	90 92 e2 04 	sts	0x04E2, r9
    25b4:	80 92 e1 04 	sts	0x04E1, r8
    25b8:	1f c0       	rjmp	.+62     	; 0x25f8 <set_time+0x4a4>
    25ba:	22 30       	cpi	r18, 0x02	; 2
    25bc:	31 05       	cpc	r19, r1
    25be:	e1 f4       	brne	.+56     	; 0x25f8 <set_time+0x4a4>
    25c0:	20 91 d8 04 	lds	r18, 0x04D8
    25c4:	22 23       	and	r18, r18
    25c6:	59 f4       	brne	.+22     	; 0x25de <set_time+0x48a>
    25c8:	80 91 e1 04 	lds	r24, 0x04E1
    25cc:	90 91 e2 04 	lds	r25, 0x04E2
    25d0:	4e 97       	sbiw	r24, 0x1e	; 30
    25d2:	2c f0       	brlt	.+10     	; 0x25de <set_time+0x48a>
    25d4:	b0 92 e2 04 	sts	0x04E2, r11
    25d8:	a0 92 e1 04 	sts	0x04E1, r10
    25dc:	0d c0       	rjmp	.+26     	; 0x25f8 <set_time+0x4a4>
    25de:	21 50       	subi	r18, 0x01	; 1
    25e0:	23 30       	cpi	r18, 0x03	; 3
    25e2:	50 f4       	brcc	.+20     	; 0x25f8 <set_time+0x4a4>
    25e4:	80 91 e1 04 	lds	r24, 0x04E1
    25e8:	90 91 e2 04 	lds	r25, 0x04E2
    25ec:	4d 97       	sbiw	r24, 0x1d	; 29
    25ee:	24 f0       	brlt	.+8      	; 0x25f8 <set_time+0x4a4>
    25f0:	d0 92 e2 04 	sts	0x04E2, r13
    25f4:	c0 92 e1 04 	sts	0x04E1, r12
    25f8:	84 e0       	ldi	r24, 0x04	; 4
    25fa:	0e 94 c2 0d 	call	0x1b84	; 0x1b84 <show_set_time>
    25fe:	88 e0       	ldi	r24, 0x08	; 8
    2600:	0e 94 24 04 	call	0x848	; 0x848 <Read_Input_Switch>
    2604:	88 23       	and	r24, r24
    2606:	31 f0       	breq	.+12     	; 0x2614 <set_time+0x4c0>
    2608:	82 e0       	ldi	r24, 0x02	; 2
    260a:	90 e0       	ldi	r25, 0x00	; 0
    260c:	0e 94 d1 04 	call	0x9a2	; 0x9a2 <Delay_100ms>
    2610:	13 e0       	ldi	r17, 0x03	; 3
    2612:	67 c0       	rjmp	.+206    	; 0x26e2 <set_time+0x58e>
    2614:	80 e1       	ldi	r24, 0x10	; 16
    2616:	0e 94 24 04 	call	0x848	; 0x848 <Read_Input_Switch>
    261a:	88 23       	and	r24, r24
    261c:	09 f4       	brne	.+2      	; 0x2620 <set_time+0x4cc>
    261e:	61 c0       	rjmp	.+194    	; 0x26e2 <set_time+0x58e>
    2620:	82 e0       	ldi	r24, 0x02	; 2
    2622:	90 e0       	ldi	r25, 0x00	; 0
    2624:	0e 94 d1 04 	call	0x9a2	; 0x9a2 <Delay_100ms>
    2628:	15 e0       	ldi	r17, 0x05	; 5
    262a:	5b c0       	rjmp	.+182    	; 0x26e2 <set_time+0x58e>
    262c:	80 e4       	ldi	r24, 0x40	; 64
    262e:	0e 94 24 04 	call	0x848	; 0x848 <Read_Input_Switch>
    2632:	88 23       	and	r24, r24
    2634:	89 f0       	breq	.+34     	; 0x2658 <set_time+0x504>
    2636:	80 91 e5 04 	lds	r24, 0x04E5
    263a:	90 91 e6 04 	lds	r25, 0x04E6
    263e:	01 96       	adiw	r24, 0x01	; 1
    2640:	90 93 e6 04 	sts	0x04E6, r25
    2644:	80 93 e5 04 	sts	0x04E5, r24
    2648:	85 53       	subi	r24, 0x35	; 53
    264a:	98 40       	sbci	r25, 0x08	; 8
    264c:	d4 f0       	brlt	.+52     	; 0x2682 <set_time+0x52e>
    264e:	30 92 e6 04 	sts	0x04E6, r3
    2652:	20 92 e5 04 	sts	0x04E5, r2
    2656:	15 c0       	rjmp	.+42     	; 0x2682 <set_time+0x52e>
    2658:	80 e2       	ldi	r24, 0x20	; 32
    265a:	0e 94 24 04 	call	0x848	; 0x848 <Read_Input_Switch>
    265e:	88 23       	and	r24, r24
    2660:	59 f1       	breq	.+86     	; 0x26b8 <set_time+0x564>
    2662:	80 91 e5 04 	lds	r24, 0x04E5
    2666:	90 91 e6 04 	lds	r25, 0x04E6
    266a:	01 97       	sbiw	r24, 0x01	; 1
    266c:	90 93 e6 04 	sts	0x04E6, r25
    2670:	80 93 e5 04 	sts	0x04E5, r24
    2674:	8c 5d       	subi	r24, 0xDC	; 220
    2676:	97 40       	sbci	r25, 0x07	; 7
    2678:	24 f4       	brge	.+8      	; 0x2682 <set_time+0x52e>
    267a:	50 92 e6 04 	sts	0x04E6, r5
    267e:	40 92 e5 04 	sts	0x04E5, r4
    2682:	88 ed       	ldi	r24, 0xD8	; 216
    2684:	94 e0       	ldi	r25, 0x04	; 4
    2686:	0e 94 db 0c 	call	0x19b6	; 0x19b6 <czy_przestepny>
    268a:	80 91 d8 04 	lds	r24, 0x04D8
    268e:	88 23       	and	r24, r24
    2690:	81 f0       	breq	.+32     	; 0x26b2 <set_time+0x55e>
    2692:	80 91 e3 04 	lds	r24, 0x04E3
    2696:	90 91 e4 04 	lds	r25, 0x04E4
    269a:	02 97       	sbiw	r24, 0x02	; 2
    269c:	51 f4       	brne	.+20     	; 0x26b2 <set_time+0x55e>
    269e:	80 91 e1 04 	lds	r24, 0x04E1
    26a2:	90 91 e2 04 	lds	r25, 0x04E2
    26a6:	4d 97       	sbiw	r24, 0x1d	; 29
    26a8:	21 f4       	brne	.+8      	; 0x26b2 <set_time+0x55e>
    26aa:	d0 92 e2 04 	sts	0x04E2, r13
    26ae:	c0 92 e1 04 	sts	0x04E1, r12
    26b2:	85 e0       	ldi	r24, 0x05	; 5
    26b4:	0e 94 c2 0d 	call	0x1b84	; 0x1b84 <show_set_time>
    26b8:	88 e0       	ldi	r24, 0x08	; 8
    26ba:	0e 94 24 04 	call	0x848	; 0x848 <Read_Input_Switch>
    26be:	88 23       	and	r24, r24
    26c0:	31 f0       	breq	.+12     	; 0x26ce <set_time+0x57a>
    26c2:	82 e0       	ldi	r24, 0x02	; 2
    26c4:	90 e0       	ldi	r25, 0x00	; 0
    26c6:	0e 94 d1 04 	call	0x9a2	; 0x9a2 <Delay_100ms>
    26ca:	14 e0       	ldi	r17, 0x04	; 4
    26cc:	0a c0       	rjmp	.+20     	; 0x26e2 <set_time+0x58e>
    26ce:	80 e1       	ldi	r24, 0x10	; 16
    26d0:	0e 94 24 04 	call	0x848	; 0x848 <Read_Input_Switch>
    26d4:	88 23       	and	r24, r24
    26d6:	29 f0       	breq	.+10     	; 0x26e2 <set_time+0x58e>
    26d8:	82 e0       	ldi	r24, 0x02	; 2
    26da:	90 e0       	ldi	r25, 0x00	; 0
    26dc:	0e 94 d1 04 	call	0x9a2	; 0x9a2 <Delay_100ms>
    26e0:	10 e0       	ldi	r17, 0x00	; 0
    26e2:	80 e8       	ldi	r24, 0x80	; 128
    26e4:	0e 94 24 04 	call	0x848	; 0x848 <Read_Input_Switch>
    26e8:	88 23       	and	r24, r24
    26ea:	09 f4       	brne	.+2      	; 0x26ee <set_time+0x59a>
    26ec:	95 cd       	rjmp	.-1238   	; 0x2218 <set_time+0xc4>
    26ee:	80 e8       	ldi	r24, 0x80	; 128
    26f0:	0e 94 24 04 	call	0x848	; 0x848 <Read_Input_Switch>
    26f4:	88 23       	and	r24, r24
    26f6:	09 f4       	brne	.+2      	; 0x26fa <set_time+0x5a6>
    26f8:	78 cd       	rjmp	.-1296   	; 0x21ea <set_time+0x96>
    26fa:	0e 94 f8 05 	call	0xbf0	; 0xbf0 <lcd_cls>
    26fe:	80 e0       	ldi	r24, 0x00	; 0
    2700:	60 e0       	ldi	r22, 0x00	; 0
    2702:	0e 94 f0 05 	call	0xbe0	; 0xbe0 <lcd_locate>
    2706:	87 ea       	ldi	r24, 0xA7	; 167
    2708:	90 e0       	ldi	r25, 0x00	; 0
    270a:	0e 94 a2 05 	call	0xb44	; 0xb44 <lcd_str_P>
    270e:	88 e0       	ldi	r24, 0x08	; 8
    2710:	0e 94 24 04 	call	0x848	; 0x848 <Read_Input_Switch>
    2714:	88 23       	and	r24, r24
    2716:	99 f0       	breq	.+38     	; 0x273e <set_time+0x5ea>
    2718:	88 ed       	ldi	r24, 0xD8	; 216
    271a:	94 e0       	ldi	r25, 0x04	; 4
    271c:	0e 94 db 0c 	call	0x19b6	; 0x19b6 <czy_przestepny>
    2720:	88 ed       	ldi	r24, 0xD8	; 216
    2722:	94 e0       	ldi	r25, 0x04	; 4
    2724:	0e 94 fb 0c 	call	0x19f6	; 0x19f6 <dzien_tyg>
    2728:	88 ed       	ldi	r24, 0xD8	; 216
    272a:	94 e0       	ldi	r25, 0x04	; 4
    272c:	be 01       	movw	r22, r28
    272e:	6f 5f       	subi	r22, 0xFF	; 255
    2730:	7f 4f       	sbci	r23, 0xFF	; 255
    2732:	0e 94 22 0c 	call	0x1844	; 0x1844 <struct_RTC_on_tab>
    2736:	0e 94 1b 10 	call	0x2036	; 0x2036 <write_time>
    273a:	81 e0       	ldi	r24, 0x01	; 1
    273c:	06 c0       	rjmp	.+12     	; 0x274a <set_time+0x5f6>
    273e:	80 e1       	ldi	r24, 0x10	; 16
    2740:	0e 94 24 04 	call	0x848	; 0x848 <Read_Input_Switch>
    2744:	88 23       	and	r24, r24
    2746:	19 f3       	breq	.-58     	; 0x270e <set_time+0x5ba>
    2748:	80 e0       	ldi	r24, 0x00	; 0
    274a:	2a 96       	adiw	r28, 0x0a	; 10
    274c:	0f b6       	in	r0, 0x3f	; 63
    274e:	f8 94       	cli
    2750:	de bf       	out	0x3e, r29	; 62
    2752:	0f be       	out	0x3f, r0	; 63
    2754:	cd bf       	out	0x3d, r28	; 61
    2756:	cf 91       	pop	r28
    2758:	df 91       	pop	r29
    275a:	1f 91       	pop	r17
    275c:	0f 91       	pop	r16
    275e:	ff 90       	pop	r15
    2760:	ef 90       	pop	r14
    2762:	df 90       	pop	r13
    2764:	cf 90       	pop	r12
    2766:	bf 90       	pop	r11
    2768:	af 90       	pop	r10
    276a:	9f 90       	pop	r9
    276c:	8f 90       	pop	r8
    276e:	7f 90       	pop	r7
    2770:	6f 90       	pop	r6
    2772:	5f 90       	pop	r5
    2774:	4f 90       	pop	r4
    2776:	3f 90       	pop	r3
    2778:	2f 90       	pop	r2
    277a:	08 95       	ret

0000277c <crc8>:
    277c:	dc 01       	movw	r26, r24
    277e:	20 e0       	ldi	r18, 0x00	; 0
    2780:	40 e0       	ldi	r20, 0x00	; 0
    2782:	50 e0       	ldi	r21, 0x00	; 0
    2784:	98 e1       	ldi	r25, 0x18	; 24
    2786:	15 c0       	rjmp	.+42     	; 0x27b2 <crc8+0x36>
    2788:	fd 01       	movw	r30, r26
    278a:	e4 0f       	add	r30, r20
    278c:	f5 1f       	adc	r31, r21
    278e:	e0 81       	ld	r30, Z
    2790:	38 e0       	ldi	r19, 0x08	; 8
    2792:	8e 2f       	mov	r24, r30
    2794:	82 27       	eor	r24, r18
    2796:	f8 2f       	mov	r31, r24
    2798:	f1 70       	andi	r31, 0x01	; 1
    279a:	80 fd       	sbrc	r24, 0
    279c:	29 27       	eor	r18, r25
    279e:	26 95       	lsr	r18
    27a0:	f1 30       	cpi	r31, 0x01	; 1
    27a2:	09 f4       	brne	.+2      	; 0x27a6 <crc8+0x2a>
    27a4:	20 68       	ori	r18, 0x80	; 128
    27a6:	31 50       	subi	r19, 0x01	; 1
    27a8:	11 f0       	breq	.+4      	; 0x27ae <crc8+0x32>
    27aa:	e6 95       	lsr	r30
    27ac:	f2 cf       	rjmp	.-28     	; 0x2792 <crc8+0x16>
    27ae:	4f 5f       	subi	r20, 0xFF	; 255
    27b0:	5f 4f       	sbci	r21, 0xFF	; 255
    27b2:	46 17       	cp	r20, r22
    27b4:	57 07       	cpc	r21, r23
    27b6:	41 f7       	brne	.-48     	; 0x2788 <crc8+0xc>
    27b8:	82 2f       	mov	r24, r18
    27ba:	08 95       	ret

000027bc <DS18X20_meas_to_cel>:
    27bc:	af 92       	push	r10
    27be:	bf 92       	push	r11
    27c0:	df 92       	push	r13
    27c2:	ef 92       	push	r14
    27c4:	ff 92       	push	r15
    27c6:	0f 93       	push	r16
    27c8:	1f 93       	push	r17
    27ca:	df 93       	push	r29
    27cc:	cf 93       	push	r28
    27ce:	cd b7       	in	r28, 0x3d	; 61
    27d0:	de b7       	in	r29, 0x3e	; 62
    27d2:	60 97       	sbiw	r28, 0x10	; 16
    27d4:	0f b6       	in	r0, 0x3f	; 63
    27d6:	f8 94       	cli
    27d8:	de bf       	out	0x3e, r29	; 62
    27da:	0f be       	out	0x3f, r0	; 63
    27dc:	cd bf       	out	0x3d, r28	; 61
    27de:	d8 2e       	mov	r13, r24
    27e0:	7a 01       	movw	r14, r20
    27e2:	59 01       	movw	r10, r18
    27e4:	de 01       	movw	r26, r28
    27e6:	11 96       	adiw	r26, 0x01	; 1
    27e8:	e9 e5       	ldi	r30, 0x59	; 89
    27ea:	f3 e0       	ldi	r31, 0x03	; 3
    27ec:	80 e1       	ldi	r24, 0x10	; 16
    27ee:	01 90       	ld	r0, Z+
    27f0:	0d 92       	st	X+, r0
    27f2:	81 50       	subi	r24, 0x01	; 1
    27f4:	e1 f7       	brne	.-8      	; 0x27ee <DS18X20_meas_to_cel+0x32>
    27f6:	fb 01       	movw	r30, r22
    27f8:	80 81       	ld	r24, Z
    27fa:	48 2f       	mov	r20, r24
    27fc:	50 e0       	ldi	r21, 0x00	; 0
    27fe:	91 81       	ldd	r25, Z+1	; 0x01
    2800:	80 e0       	ldi	r24, 0x00	; 0
    2802:	48 2b       	or	r20, r24
    2804:	59 2b       	or	r21, r25
    2806:	f0 e1       	ldi	r31, 0x10	; 16
    2808:	df 16       	cp	r13, r31
    280a:	79 f4       	brne	.+30     	; 0x282a <DS18X20_meas_to_cel+0x6e>
    280c:	ca 01       	movw	r24, r20
    280e:	8e 7f       	andi	r24, 0xFE	; 254
    2810:	33 e0       	ldi	r19, 0x03	; 3
    2812:	88 0f       	add	r24, r24
    2814:	99 1f       	adc	r25, r25
    2816:	3a 95       	dec	r19
    2818:	e1 f7       	brne	.-8      	; 0x2812 <DS18X20_meas_to_cel+0x56>
    281a:	fb 01       	movw	r30, r22
    281c:	26 81       	ldd	r18, Z+6	; 0x06
    281e:	4c e0       	ldi	r20, 0x0C	; 12
    2820:	50 e0       	ldi	r21, 0x00	; 0
    2822:	42 1b       	sub	r20, r18
    2824:	51 09       	sbc	r21, r1
    2826:	48 0f       	add	r20, r24
    2828:	59 1f       	adc	r21, r25
    282a:	57 ff       	sbrs	r21, 7
    282c:	07 c0       	rjmp	.+14     	; 0x283c <DS18X20_meas_to_cel+0x80>
    282e:	81 e0       	ldi	r24, 0x01	; 1
    2830:	f7 01       	movw	r30, r14
    2832:	80 83       	st	Z, r24
    2834:	50 95       	com	r21
    2836:	41 95       	neg	r20
    2838:	5f 4f       	sbci	r21, 0xFF	; 255
    283a:	02 c0       	rjmp	.+4      	; 0x2840 <DS18X20_meas_to_cel+0x84>
    283c:	f7 01       	movw	r30, r14
    283e:	10 82       	st	Z, r1
    2840:	f8 e2       	ldi	r31, 0x28	; 40
    2842:	df 16       	cp	r13, r31
    2844:	99 f4       	brne	.+38     	; 0x286c <DS18X20_meas_to_cel+0xb0>
    2846:	fb 01       	movw	r30, r22
    2848:	84 81       	ldd	r24, Z+4	; 0x04
    284a:	68 2f       	mov	r22, r24
    284c:	70 e0       	ldi	r23, 0x00	; 0
    284e:	cb 01       	movw	r24, r22
    2850:	80 76       	andi	r24, 0x60	; 96
    2852:	90 70       	andi	r25, 0x00	; 0
    2854:	80 36       	cpi	r24, 0x60	; 96
    2856:	91 05       	cpc	r25, r1
    2858:	49 f0       	breq	.+18     	; 0x286c <DS18X20_meas_to_cel+0xb0>
    285a:	66 ff       	sbrs	r22, 6
    285c:	02 c0       	rjmp	.+4      	; 0x2862 <DS18X20_meas_to_cel+0xa6>
    285e:	4e 7f       	andi	r20, 0xFE	; 254
    2860:	05 c0       	rjmp	.+10     	; 0x286c <DS18X20_meas_to_cel+0xb0>
    2862:	65 ff       	sbrs	r22, 5
    2864:	02 c0       	rjmp	.+4      	; 0x286a <DS18X20_meas_to_cel+0xae>
    2866:	4c 7f       	andi	r20, 0xFC	; 252
    2868:	01 c0       	rjmp	.+2      	; 0x286c <DS18X20_meas_to_cel+0xb0>
    286a:	48 7f       	andi	r20, 0xF8	; 248
    286c:	ca 01       	movw	r24, r20
    286e:	24 e0       	ldi	r18, 0x04	; 4
    2870:	96 95       	lsr	r25
    2872:	87 95       	ror	r24
    2874:	2a 95       	dec	r18
    2876:	e1 f7       	brne	.-8      	; 0x2870 <DS18X20_meas_to_cel+0xb4>
    2878:	f5 01       	movw	r30, r10
    287a:	80 83       	st	Z, r24
    287c:	84 2f       	mov	r24, r20
    287e:	8f 70       	andi	r24, 0x0F	; 15
    2880:	fe 01       	movw	r30, r28
    2882:	e8 0f       	add	r30, r24
    2884:	f1 1d       	adc	r31, r1
    2886:	81 81       	ldd	r24, Z+1	; 0x01
    2888:	f8 01       	movw	r30, r16
    288a:	80 83       	st	Z, r24
    288c:	80 e0       	ldi	r24, 0x00	; 0
    288e:	60 96       	adiw	r28, 0x10	; 16
    2890:	0f b6       	in	r0, 0x3f	; 63
    2892:	f8 94       	cli
    2894:	de bf       	out	0x3e, r29	; 62
    2896:	0f be       	out	0x3f, r0	; 63
    2898:	cd bf       	out	0x3d, r28	; 61
    289a:	cf 91       	pop	r28
    289c:	df 91       	pop	r29
    289e:	1f 91       	pop	r17
    28a0:	0f 91       	pop	r16
    28a2:	ff 90       	pop	r15
    28a4:	ef 90       	pop	r14
    28a6:	df 90       	pop	r13
    28a8:	bf 90       	pop	r11
    28aa:	af 90       	pop	r10
    28ac:	08 95       	ret

000028ae <DS18X20_temp_cmp>:
    28ae:	88 23       	and	r24, r24
    28b0:	19 f0       	breq	.+6      	; 0x28b8 <DS18X20_temp_cmp+0xa>
    28b2:	70 95       	com	r23
    28b4:	61 95       	neg	r22
    28b6:	7f 4f       	sbci	r23, 0xFF	; 255
    28b8:	44 23       	and	r20, r20
    28ba:	19 f0       	breq	.+6      	; 0x28c2 <DS18X20_temp_cmp+0x14>
    28bc:	30 95       	com	r19
    28be:	21 95       	neg	r18
    28c0:	3f 4f       	sbci	r19, 0xFF	; 255
    28c2:	62 17       	cp	r22, r18
    28c4:	73 07       	cpc	r23, r19
    28c6:	1c f4       	brge	.+6      	; 0x28ce <DS18X20_temp_cmp+0x20>
    28c8:	4f ef       	ldi	r20, 0xFF	; 255
    28ca:	5f ef       	ldi	r21, 0xFF	; 255
    28cc:	07 c0       	rjmp	.+14     	; 0x28dc <DS18X20_temp_cmp+0x2e>
    28ce:	40 e0       	ldi	r20, 0x00	; 0
    28d0:	50 e0       	ldi	r21, 0x00	; 0
    28d2:	26 17       	cp	r18, r22
    28d4:	37 07       	cpc	r19, r23
    28d6:	14 f4       	brge	.+4      	; 0x28dc <DS18X20_temp_cmp+0x2e>
    28d8:	41 e0       	ldi	r20, 0x01	; 1
    28da:	50 e0       	ldi	r21, 0x00	; 0
    28dc:	ca 01       	movw	r24, r20
    28de:	08 95       	ret

000028e0 <DS18X20_read_meas_single>:
    28e0:	7f 92       	push	r7
    28e2:	8f 92       	push	r8
    28e4:	9f 92       	push	r9
    28e6:	af 92       	push	r10
    28e8:	bf 92       	push	r11
    28ea:	cf 92       	push	r12
    28ec:	df 92       	push	r13
    28ee:	ef 92       	push	r14
    28f0:	ff 92       	push	r15
    28f2:	0f 93       	push	r16
    28f4:	1f 93       	push	r17
    28f6:	df 93       	push	r29
    28f8:	cf 93       	push	r28
    28fa:	cd b7       	in	r28, 0x3d	; 61
    28fc:	de b7       	in	r29, 0x3e	; 62
    28fe:	29 97       	sbiw	r28, 0x09	; 9
    2900:	0f b6       	in	r0, 0x3f	; 63
    2902:	f8 94       	cli
    2904:	de bf       	out	0x3e, r29	; 62
    2906:	0f be       	out	0x3f, r0	; 63
    2908:	cd bf       	out	0x3d, r28	; 61
    290a:	78 2e       	mov	r7, r24
    290c:	6b 01       	movw	r12, r22
    290e:	5a 01       	movw	r10, r20
    2910:	49 01       	movw	r8, r18
    2912:	8e eb       	ldi	r24, 0xBE	; 190
    2914:	60 e0       	ldi	r22, 0x00	; 0
    2916:	70 e0       	ldi	r23, 0x00	; 0
    2918:	0e 94 4c 16 	call	0x2c98	; 0x2c98 <ow_command>
    291c:	8e 01       	movw	r16, r28
    291e:	0f 5f       	subi	r16, 0xFF	; 255
    2920:	1f 4f       	sbci	r17, 0xFF	; 255
    2922:	4a e0       	ldi	r20, 0x0A	; 10
    2924:	e4 2e       	mov	r14, r20
    2926:	f1 2c       	mov	r15, r1
    2928:	ec 0e       	add	r14, r28
    292a:	fd 1e       	adc	r15, r29
    292c:	0e 94 fc 15 	call	0x2bf8	; 0x2bf8 <ow_byte_rd>
    2930:	f8 01       	movw	r30, r16
    2932:	81 93       	st	Z+, r24
    2934:	8f 01       	movw	r16, r30
    2936:	ee 15       	cp	r30, r14
    2938:	ff 05       	cpc	r31, r15
    293a:	c1 f7       	brne	.-16     	; 0x292c <DS18X20_read_meas_single+0x4c>
    293c:	7e 01       	movw	r14, r28
    293e:	08 94       	sec
    2940:	e1 1c       	adc	r14, r1
    2942:	f1 1c       	adc	r15, r1
    2944:	c7 01       	movw	r24, r14
    2946:	69 e0       	ldi	r22, 0x09	; 9
    2948:	70 e0       	ldi	r23, 0x00	; 0
    294a:	0e 94 be 13 	call	0x277c	; 0x277c <crc8>
    294e:	88 23       	and	r24, r24
    2950:	11 f0       	breq	.+4      	; 0x2956 <DS18X20_read_meas_single+0x76>
    2952:	83 e0       	ldi	r24, 0x03	; 3
    2954:	08 c0       	rjmp	.+16     	; 0x2966 <DS18X20_read_meas_single+0x86>
    2956:	87 2d       	mov	r24, r7
    2958:	b7 01       	movw	r22, r14
    295a:	a6 01       	movw	r20, r12
    295c:	95 01       	movw	r18, r10
    295e:	84 01       	movw	r16, r8
    2960:	0e 94 de 13 	call	0x27bc	; 0x27bc <DS18X20_meas_to_cel>
    2964:	80 e0       	ldi	r24, 0x00	; 0
    2966:	29 96       	adiw	r28, 0x09	; 9
    2968:	0f b6       	in	r0, 0x3f	; 63
    296a:	f8 94       	cli
    296c:	de bf       	out	0x3e, r29	; 62
    296e:	0f be       	out	0x3f, r0	; 63
    2970:	cd bf       	out	0x3d, r28	; 61
    2972:	cf 91       	pop	r28
    2974:	df 91       	pop	r29
    2976:	1f 91       	pop	r17
    2978:	0f 91       	pop	r16
    297a:	ff 90       	pop	r15
    297c:	ef 90       	pop	r14
    297e:	df 90       	pop	r13
    2980:	cf 90       	pop	r12
    2982:	bf 90       	pop	r11
    2984:	af 90       	pop	r10
    2986:	9f 90       	pop	r9
    2988:	8f 90       	pop	r8
    298a:	7f 90       	pop	r7
    298c:	08 95       	ret

0000298e <DS18X20_read_meas>:
    298e:	6f 92       	push	r6
    2990:	7f 92       	push	r7
    2992:	8f 92       	push	r8
    2994:	9f 92       	push	r9
    2996:	af 92       	push	r10
    2998:	bf 92       	push	r11
    299a:	cf 92       	push	r12
    299c:	df 92       	push	r13
    299e:	ef 92       	push	r14
    29a0:	ff 92       	push	r15
    29a2:	0f 93       	push	r16
    29a4:	1f 93       	push	r17
    29a6:	df 93       	push	r29
    29a8:	cf 93       	push	r28
    29aa:	cd b7       	in	r28, 0x3d	; 61
    29ac:	de b7       	in	r29, 0x3e	; 62
    29ae:	29 97       	sbiw	r28, 0x09	; 9
    29b0:	0f b6       	in	r0, 0x3f	; 63
    29b2:	f8 94       	cli
    29b4:	de bf       	out	0x3e, r29	; 62
    29b6:	0f be       	out	0x3f, r0	; 63
    29b8:	cd bf       	out	0x3d, r28	; 61
    29ba:	6c 01       	movw	r12, r24
    29bc:	5b 01       	movw	r10, r22
    29be:	4a 01       	movw	r8, r20
    29c0:	39 01       	movw	r6, r18
    29c2:	0e 94 be 15 	call	0x2b7c	; 0x2b7c <ow_reset>
    29c6:	8e eb       	ldi	r24, 0xBE	; 190
    29c8:	b6 01       	movw	r22, r12
    29ca:	0e 94 4c 16 	call	0x2c98	; 0x2c98 <ow_command>
    29ce:	8e 01       	movw	r16, r28
    29d0:	0f 5f       	subi	r16, 0xFF	; 255
    29d2:	1f 4f       	sbci	r17, 0xFF	; 255
    29d4:	5a e0       	ldi	r21, 0x0A	; 10
    29d6:	e5 2e       	mov	r14, r21
    29d8:	f1 2c       	mov	r15, r1
    29da:	ec 0e       	add	r14, r28
    29dc:	fd 1e       	adc	r15, r29
    29de:	0e 94 fc 15 	call	0x2bf8	; 0x2bf8 <ow_byte_rd>
    29e2:	f8 01       	movw	r30, r16
    29e4:	81 93       	st	Z+, r24
    29e6:	8f 01       	movw	r16, r30
    29e8:	ee 15       	cp	r30, r14
    29ea:	ff 05       	cpc	r31, r15
    29ec:	c1 f7       	brne	.-16     	; 0x29de <DS18X20_read_meas+0x50>
    29ee:	7e 01       	movw	r14, r28
    29f0:	08 94       	sec
    29f2:	e1 1c       	adc	r14, r1
    29f4:	f1 1c       	adc	r15, r1
    29f6:	c7 01       	movw	r24, r14
    29f8:	69 e0       	ldi	r22, 0x09	; 9
    29fa:	70 e0       	ldi	r23, 0x00	; 0
    29fc:	0e 94 be 13 	call	0x277c	; 0x277c <crc8>
    2a00:	88 23       	and	r24, r24
    2a02:	11 f0       	breq	.+4      	; 0x2a08 <DS18X20_read_meas+0x7a>
    2a04:	83 e0       	ldi	r24, 0x03	; 3
    2a06:	09 c0       	rjmp	.+18     	; 0x2a1a <DS18X20_read_meas+0x8c>
    2a08:	f6 01       	movw	r30, r12
    2a0a:	80 81       	ld	r24, Z
    2a0c:	b7 01       	movw	r22, r14
    2a0e:	a5 01       	movw	r20, r10
    2a10:	94 01       	movw	r18, r8
    2a12:	83 01       	movw	r16, r6
    2a14:	0e 94 de 13 	call	0x27bc	; 0x27bc <DS18X20_meas_to_cel>
    2a18:	80 e0       	ldi	r24, 0x00	; 0
    2a1a:	29 96       	adiw	r28, 0x09	; 9
    2a1c:	0f b6       	in	r0, 0x3f	; 63
    2a1e:	f8 94       	cli
    2a20:	de bf       	out	0x3e, r29	; 62
    2a22:	0f be       	out	0x3f, r0	; 63
    2a24:	cd bf       	out	0x3d, r28	; 61
    2a26:	cf 91       	pop	r28
    2a28:	df 91       	pop	r29
    2a2a:	1f 91       	pop	r17
    2a2c:	0f 91       	pop	r16
    2a2e:	ff 90       	pop	r15
    2a30:	ef 90       	pop	r14
    2a32:	df 90       	pop	r13
    2a34:	cf 90       	pop	r12
    2a36:	bf 90       	pop	r11
    2a38:	af 90       	pop	r10
    2a3a:	9f 90       	pop	r9
    2a3c:	8f 90       	pop	r8
    2a3e:	7f 90       	pop	r7
    2a40:	6f 90       	pop	r6
    2a42:	08 95       	ret

00002a44 <DS18X20_start_meas>:
    2a44:	1f 93       	push	r17
    2a46:	cf 93       	push	r28
    2a48:	df 93       	push	r29
    2a4a:	18 2f       	mov	r17, r24
    2a4c:	eb 01       	movw	r28, r22
    2a4e:	0e 94 be 15 	call	0x2b7c	; 0x2b7c <ow_reset>
    2a52:	0e 94 b5 15 	call	0x2b6a	; 0x2b6a <ow_input_pin_state>
    2a56:	88 23       	and	r24, r24
    2a58:	11 f4       	brne	.+4      	; 0x2a5e <DS18X20_start_meas+0x1a>
    2a5a:	82 e0       	ldi	r24, 0x02	; 2
    2a5c:	09 c0       	rjmp	.+18     	; 0x2a70 <DS18X20_start_meas+0x2c>
    2a5e:	84 e4       	ldi	r24, 0x44	; 68
    2a60:	be 01       	movw	r22, r28
    2a62:	0e 94 4c 16 	call	0x2c98	; 0x2c98 <ow_command>
    2a66:	11 30       	cpi	r17, 0x01	; 1
    2a68:	11 f0       	breq	.+4      	; 0x2a6e <DS18X20_start_meas+0x2a>
    2a6a:	0e 94 b8 15 	call	0x2b70	; 0x2b70 <ow_parasite_enable>
    2a6e:	80 e0       	ldi	r24, 0x00	; 0
    2a70:	df 91       	pop	r29
    2a72:	cf 91       	pop	r28
    2a74:	1f 91       	pop	r17
    2a76:	08 95       	ret

00002a78 <DS18X20_get_power_status>:
    2a78:	0f 93       	push	r16
    2a7a:	1f 93       	push	r17
    2a7c:	8c 01       	movw	r16, r24
    2a7e:	0e 94 be 15 	call	0x2b7c	; 0x2b7c <ow_reset>
    2a82:	84 eb       	ldi	r24, 0xB4	; 180
    2a84:	b8 01       	movw	r22, r16
    2a86:	0e 94 4c 16 	call	0x2c98	; 0x2c98 <ow_command>
    2a8a:	81 e0       	ldi	r24, 0x01	; 1
    2a8c:	0e 94 d8 15 	call	0x2bb0	; 0x2bb0 <ow_bit_io>
    2a90:	18 2f       	mov	r17, r24
    2a92:	0e 94 be 15 	call	0x2b7c	; 0x2b7c <ow_reset>
    2a96:	11 11       	cpse	r17, r1
    2a98:	11 e0       	ldi	r17, 0x01	; 1
    2a9a:	81 2f       	mov	r24, r17
    2a9c:	1f 91       	pop	r17
    2a9e:	0f 91       	pop	r16
    2aa0:	08 95       	ret

00002aa2 <DS18X20_find_sensor>:
    2aa2:	0f 93       	push	r16
    2aa4:	1f 93       	push	r17
    2aa6:	cf 93       	push	r28
    2aa8:	df 93       	push	r29
    2aaa:	8c 01       	movw	r16, r24
    2aac:	eb 01       	movw	r28, r22
    2aae:	f8 01       	movw	r30, r16
    2ab0:	80 81       	ld	r24, Z
    2ab2:	be 01       	movw	r22, r28
    2ab4:	0e 94 00 16 	call	0x2c00	; 0x2c00 <ow_rom_search>
    2ab8:	f8 01       	movw	r30, r16
    2aba:	80 83       	st	Z, r24
    2abc:	81 50       	subi	r24, 0x01	; 1
    2abe:	8d 3f       	cpi	r24, 0xFD	; 253
    2ac0:	28 f4       	brcc	.+10     	; 0x2acc <DS18X20_find_sensor+0x2a>
    2ac2:	88 81       	ld	r24, Y
    2ac4:	88 32       	cpi	r24, 0x28	; 40
    2ac6:	11 f0       	breq	.+4      	; 0x2acc <DS18X20_find_sensor+0x2a>
    2ac8:	80 31       	cpi	r24, 0x10	; 16
    2aca:	89 f7       	brne	.-30     	; 0x2aae <DS18X20_find_sensor+0xc>
    2acc:	df 91       	pop	r29
    2ace:	cf 91       	pop	r28
    2ad0:	1f 91       	pop	r17
    2ad2:	0f 91       	pop	r16
    2ad4:	08 95       	ret

00002ad6 <search_sensors>:
    2ad6:	cf 92       	push	r12
    2ad8:	df 92       	push	r13
    2ada:	ef 92       	push	r14
    2adc:	ff 92       	push	r15
    2ade:	1f 93       	push	r17
    2ae0:	df 93       	push	r29
    2ae2:	cf 93       	push	r28
    2ae4:	cd b7       	in	r28, 0x3d	; 61
    2ae6:	de b7       	in	r29, 0x3e	; 62
    2ae8:	29 97       	sbiw	r28, 0x09	; 9
    2aea:	0f b6       	in	r0, 0x3f	; 63
    2aec:	f8 94       	cli
    2aee:	de bf       	out	0x3e, r29	; 62
    2af0:	0f be       	out	0x3f, r0	; 63
    2af2:	cd bf       	out	0x3d, r28	; 61
    2af4:	8f ef       	ldi	r24, 0xFF	; 255
    2af6:	89 83       	std	Y+1, r24	; 0x01
    2af8:	10 e0       	ldi	r17, 0x00	; 0
    2afa:	62 e0       	ldi	r22, 0x02	; 2
    2afc:	e6 2e       	mov	r14, r22
    2afe:	f1 2c       	mov	r15, r1
    2b00:	ec 0e       	add	r14, r28
    2b02:	fd 1e       	adc	r15, r29
    2b04:	6e 01       	movw	r12, r28
    2b06:	08 94       	sec
    2b08:	c1 1c       	adc	r12, r1
    2b0a:	d1 1c       	adc	r13, r1
    2b0c:	19 c0       	rjmp	.+50     	; 0x2b40 <search_sensors+0x6a>
    2b0e:	c6 01       	movw	r24, r12
    2b10:	b7 01       	movw	r22, r14
    2b12:	0e 94 51 15 	call	0x2aa2	; 0x2aa2 <DS18X20_find_sensor>
    2b16:	89 81       	ldd	r24, Y+1	; 0x01
    2b18:	8f 3f       	cpi	r24, 0xFF	; 255
    2b1a:	c1 f0       	breq	.+48     	; 0x2b4c <search_sensors+0x76>
    2b1c:	8e 3f       	cpi	r24, 0xFE	; 254
    2b1e:	b1 f0       	breq	.+44     	; 0x2b4c <search_sensors+0x76>
    2b20:	20 e0       	ldi	r18, 0x00	; 0
    2b22:	30 e0       	ldi	r19, 0x00	; 0
    2b24:	f9 01       	movw	r30, r18
    2b26:	e1 51       	subi	r30, 0x11	; 17
    2b28:	fb 4f       	sbci	r31, 0xFB	; 251
    2b2a:	d7 01       	movw	r26, r14
    2b2c:	a2 0f       	add	r26, r18
    2b2e:	b3 1f       	adc	r27, r19
    2b30:	8c 91       	ld	r24, X
    2b32:	80 83       	st	Z, r24
    2b34:	2f 5f       	subi	r18, 0xFF	; 255
    2b36:	3f 4f       	sbci	r19, 0xFF	; 255
    2b38:	11 e0       	ldi	r17, 0x01	; 1
    2b3a:	28 30       	cpi	r18, 0x08	; 8
    2b3c:	31 05       	cpc	r19, r1
    2b3e:	91 f7       	brne	.-28     	; 0x2b24 <search_sensors+0x4e>
    2b40:	89 81       	ldd	r24, Y+1	; 0x01
    2b42:	88 23       	and	r24, r24
    2b44:	19 f0       	breq	.+6      	; 0x2b4c <search_sensors+0x76>
    2b46:	11 23       	and	r17, r17
    2b48:	11 f3       	breq	.-60     	; 0x2b0e <search_sensors+0x38>
    2b4a:	11 e0       	ldi	r17, 0x01	; 1
    2b4c:	81 2f       	mov	r24, r17
    2b4e:	29 96       	adiw	r28, 0x09	; 9
    2b50:	0f b6       	in	r0, 0x3f	; 63
    2b52:	f8 94       	cli
    2b54:	de bf       	out	0x3e, r29	; 62
    2b56:	0f be       	out	0x3f, r0	; 63
    2b58:	cd bf       	out	0x3d, r28	; 61
    2b5a:	cf 91       	pop	r28
    2b5c:	df 91       	pop	r29
    2b5e:	1f 91       	pop	r17
    2b60:	ff 90       	pop	r15
    2b62:	ef 90       	pop	r14
    2b64:	df 90       	pop	r13
    2b66:	cf 90       	pop	r12
    2b68:	08 95       	ret

00002b6a <ow_input_pin_state>:
    2b6a:	86 b1       	in	r24, 0x06	; 6
    2b6c:	84 70       	andi	r24, 0x04	; 4
    2b6e:	08 95       	ret

00002b70 <ow_parasite_enable>:
    2b70:	42 9a       	sbi	0x08, 2	; 8
    2b72:	3a 9a       	sbi	0x07, 2	; 7
    2b74:	08 95       	ret

00002b76 <ow_parasite_disable>:
    2b76:	42 98       	cbi	0x08, 2	; 8
    2b78:	3a 98       	cbi	0x07, 2	; 7
    2b7a:	08 95       	ret

00002b7c <ow_reset>:
    2b7c:	42 98       	cbi	0x08, 2	; 8
    2b7e:	3a 9a       	sbi	0x07, 2	; 7
    2b80:	80 e8       	ldi	r24, 0x80	; 128
    2b82:	97 e0       	ldi	r25, 0x07	; 7
    2b84:	01 97       	sbiw	r24, 0x01	; 1
    2b86:	f1 f7       	brne	.-4      	; 0x2b84 <ow_reset+0x8>
    2b88:	8f b7       	in	r24, 0x3f	; 63
    2b8a:	f8 94       	cli
    2b8c:	3a 98       	cbi	0x07, 2	; 7
    2b8e:	e8 e0       	ldi	r30, 0x08	; 8
    2b90:	f1 e0       	ldi	r31, 0x01	; 1
    2b92:	31 97       	sbiw	r30, 0x01	; 1
    2b94:	f1 f7       	brne	.-4      	; 0x2b92 <ow_reset+0x16>
    2b96:	26 b1       	in	r18, 0x06	; 6
    2b98:	8f bf       	out	0x3f, r24	; 63
    2b9a:	88 e7       	ldi	r24, 0x78	; 120
    2b9c:	96 e0       	ldi	r25, 0x06	; 6
    2b9e:	01 97       	sbiw	r24, 0x01	; 1
    2ba0:	f1 f7       	brne	.-4      	; 0x2b9e <ow_reset+0x22>
    2ba2:	32 99       	sbic	0x06, 2	; 6
    2ba4:	02 c0       	rjmp	.+4      	; 0x2baa <ow_reset+0x2e>
    2ba6:	81 e0       	ldi	r24, 0x01	; 1
    2ba8:	08 95       	ret
    2baa:	82 2f       	mov	r24, r18
    2bac:	84 70       	andi	r24, 0x04	; 4
    2bae:	08 95       	ret

00002bb0 <ow_bit_io>:
    2bb0:	2f b7       	in	r18, 0x3f	; 63
    2bb2:	f8 94       	cli
    2bb4:	3a 9a       	sbi	0x07, 2	; 7
    2bb6:	95 e0       	ldi	r25, 0x05	; 5
    2bb8:	9a 95       	dec	r25
    2bba:	f1 f7       	brne	.-4      	; 0x2bb8 <ow_bit_io+0x8>
    2bbc:	81 11       	cpse	r24, r1
    2bbe:	3a 98       	cbi	0x07, 2	; 7
    2bc0:	90 e5       	ldi	r25, 0x50	; 80
    2bc2:	9a 95       	dec	r25
    2bc4:	f1 f7       	brne	.-4      	; 0x2bc2 <ow_bit_io+0x12>
    2bc6:	32 9b       	sbis	0x06, 2	; 6
    2bc8:	80 e0       	ldi	r24, 0x00	; 0
    2bca:	90 ef       	ldi	r25, 0xF0	; 240
    2bcc:	9a 95       	dec	r25
    2bce:	f1 f7       	brne	.-4      	; 0x2bcc <ow_bit_io+0x1c>
    2bd0:	3a 98       	cbi	0x07, 2	; 7
    2bd2:	2f bf       	out	0x3f, r18	; 63
    2bd4:	08 95       	ret

00002bd6 <ow_byte_wr>:
    2bd6:	0f 93       	push	r16
    2bd8:	1f 93       	push	r17
    2bda:	18 2f       	mov	r17, r24
    2bdc:	08 e0       	ldi	r16, 0x08	; 8
    2bde:	81 2f       	mov	r24, r17
    2be0:	81 70       	andi	r24, 0x01	; 1
    2be2:	0e 94 d8 15 	call	0x2bb0	; 0x2bb0 <ow_bit_io>
    2be6:	16 95       	lsr	r17
    2be8:	81 11       	cpse	r24, r1
    2bea:	10 68       	ori	r17, 0x80	; 128
    2bec:	01 50       	subi	r16, 0x01	; 1
    2bee:	b9 f7       	brne	.-18     	; 0x2bde <ow_byte_wr+0x8>
    2bf0:	81 2f       	mov	r24, r17
    2bf2:	1f 91       	pop	r17
    2bf4:	0f 91       	pop	r16
    2bf6:	08 95       	ret

00002bf8 <ow_byte_rd>:
    2bf8:	8f ef       	ldi	r24, 0xFF	; 255
    2bfa:	0e 94 eb 15 	call	0x2bd6	; 0x2bd6 <ow_byte_wr>
    2bfe:	08 95       	ret

00002c00 <ow_rom_search>:
    2c00:	df 92       	push	r13
    2c02:	ef 92       	push	r14
    2c04:	ff 92       	push	r15
    2c06:	0f 93       	push	r16
    2c08:	1f 93       	push	r17
    2c0a:	cf 93       	push	r28
    2c0c:	df 93       	push	r29
    2c0e:	e8 2e       	mov	r14, r24
    2c10:	eb 01       	movw	r28, r22
    2c12:	0e 94 be 15 	call	0x2b7c	; 0x2b7c <ow_reset>
    2c16:	88 23       	and	r24, r24
    2c18:	a1 f5       	brne	.+104    	; 0x2c82 <ow_rom_search+0x82>
    2c1a:	80 ef       	ldi	r24, 0xF0	; 240
    2c1c:	0e 94 eb 15 	call	0x2bd6	; 0x2bd6 <ow_byte_wr>
    2c20:	80 e4       	ldi	r24, 0x40	; 64
    2c22:	ff 24       	eor	r15, r15
    2c24:	18 2f       	mov	r17, r24
    2c26:	98 ef       	ldi	r25, 0xF8	; 248
    2c28:	d9 2e       	mov	r13, r25
    2c2a:	d8 0e       	add	r13, r24
    2c2c:	81 e0       	ldi	r24, 0x01	; 1
    2c2e:	0e 94 d8 15 	call	0x2bb0	; 0x2bb0 <ow_bit_io>
    2c32:	08 2f       	mov	r16, r24
    2c34:	81 e0       	ldi	r24, 0x01	; 1
    2c36:	0e 94 d8 15 	call	0x2bb0	; 0x2bb0 <ow_bit_io>
    2c3a:	88 23       	and	r24, r24
    2c3c:	29 f0       	breq	.+10     	; 0x2c48 <ow_rom_search+0x48>
    2c3e:	00 23       	and	r16, r16
    2c40:	71 f0       	breq	.+28     	; 0x2c5e <ow_rom_search+0x5e>
    2c42:	8e ef       	ldi	r24, 0xFE	; 254
    2c44:	f8 2e       	mov	r15, r24
    2c46:	1f c0       	rjmp	.+62     	; 0x2c86 <ow_rom_search+0x86>
    2c48:	00 23       	and	r16, r16
    2c4a:	49 f4       	brne	.+18     	; 0x2c5e <ow_rom_search+0x5e>
    2c4c:	1e 15       	cp	r17, r14
    2c4e:	28 f0       	brcs	.+10     	; 0x2c5a <ow_rom_search+0x5a>
    2c50:	88 81       	ld	r24, Y
    2c52:	80 ff       	sbrs	r24, 0
    2c54:	04 c0       	rjmp	.+8      	; 0x2c5e <ow_rom_search+0x5e>
    2c56:	e1 16       	cp	r14, r17
    2c58:	11 f0       	breq	.+4      	; 0x2c5e <ow_rom_search+0x5e>
    2c5a:	f1 2e       	mov	r15, r17
    2c5c:	01 e0       	ldi	r16, 0x01	; 1
    2c5e:	80 2f       	mov	r24, r16
    2c60:	0e 94 d8 15 	call	0x2bb0	; 0x2bb0 <ow_bit_io>
    2c64:	88 81       	ld	r24, Y
    2c66:	86 95       	lsr	r24
    2c68:	88 83       	st	Y, r24
    2c6a:	00 23       	and	r16, r16
    2c6c:	11 f0       	breq	.+4      	; 0x2c72 <ow_rom_search+0x72>
    2c6e:	80 68       	ori	r24, 0x80	; 128
    2c70:	88 83       	st	Y, r24
    2c72:	11 50       	subi	r17, 0x01	; 1
    2c74:	1d 15       	cp	r17, r13
    2c76:	d1 f6       	brne	.-76     	; 0x2c2c <ow_rom_search+0x2c>
    2c78:	11 23       	and	r17, r17
    2c7a:	29 f0       	breq	.+10     	; 0x2c86 <ow_rom_search+0x86>
    2c7c:	21 96       	adiw	r28, 0x01	; 1
    2c7e:	81 2f       	mov	r24, r17
    2c80:	d1 cf       	rjmp	.-94     	; 0x2c24 <ow_rom_search+0x24>
    2c82:	ff 24       	eor	r15, r15
    2c84:	fa 94       	dec	r15
    2c86:	8f 2d       	mov	r24, r15
    2c88:	df 91       	pop	r29
    2c8a:	cf 91       	pop	r28
    2c8c:	1f 91       	pop	r17
    2c8e:	0f 91       	pop	r16
    2c90:	ff 90       	pop	r15
    2c92:	ef 90       	pop	r14
    2c94:	df 90       	pop	r13
    2c96:	08 95       	ret

00002c98 <ow_command>:
    2c98:	0f 93       	push	r16
    2c9a:	1f 93       	push	r17
    2c9c:	cf 93       	push	r28
    2c9e:	df 93       	push	r29
    2ca0:	08 2f       	mov	r16, r24
    2ca2:	eb 01       	movw	r28, r22
    2ca4:	0e 94 be 15 	call	0x2b7c	; 0x2b7c <ow_reset>
    2ca8:	20 97       	sbiw	r28, 0x00	; 0
    2caa:	51 f0       	breq	.+20     	; 0x2cc0 <ow_command+0x28>
    2cac:	85 e5       	ldi	r24, 0x55	; 85
    2cae:	0e 94 eb 15 	call	0x2bd6	; 0x2bd6 <ow_byte_wr>
    2cb2:	18 e0       	ldi	r17, 0x08	; 8
    2cb4:	89 91       	ld	r24, Y+
    2cb6:	0e 94 eb 15 	call	0x2bd6	; 0x2bd6 <ow_byte_wr>
    2cba:	11 50       	subi	r17, 0x01	; 1
    2cbc:	d9 f7       	brne	.-10     	; 0x2cb4 <ow_command+0x1c>
    2cbe:	03 c0       	rjmp	.+6      	; 0x2cc6 <ow_command+0x2e>
    2cc0:	8c ec       	ldi	r24, 0xCC	; 204
    2cc2:	0e 94 eb 15 	call	0x2bd6	; 0x2bd6 <ow_byte_wr>
    2cc6:	80 2f       	mov	r24, r16
    2cc8:	0e 94 eb 15 	call	0x2bd6	; 0x2bd6 <ow_byte_wr>
    2ccc:	df 91       	pop	r29
    2cce:	cf 91       	pop	r28
    2cd0:	1f 91       	pop	r17
    2cd2:	0f 91       	pop	r16
    2cd4:	08 95       	ret

00002cd6 <__udivmodqi4>:
    2cd6:	99 1b       	sub	r25, r25
    2cd8:	79 e0       	ldi	r23, 0x09	; 9
    2cda:	04 c0       	rjmp	.+8      	; 0x2ce4 <__udivmodqi4_ep>

00002cdc <__udivmodqi4_loop>:
    2cdc:	99 1f       	adc	r25, r25
    2cde:	96 17       	cp	r25, r22
    2ce0:	08 f0       	brcs	.+2      	; 0x2ce4 <__udivmodqi4_ep>
    2ce2:	96 1b       	sub	r25, r22

00002ce4 <__udivmodqi4_ep>:
    2ce4:	88 1f       	adc	r24, r24
    2ce6:	7a 95       	dec	r23
    2ce8:	c9 f7       	brne	.-14     	; 0x2cdc <__udivmodqi4_loop>
    2cea:	80 95       	com	r24
    2cec:	08 95       	ret

00002cee <__divmodhi4>:
    2cee:	97 fb       	bst	r25, 7
    2cf0:	09 2e       	mov	r0, r25
    2cf2:	07 26       	eor	r0, r23
    2cf4:	0a d0       	rcall	.+20     	; 0x2d0a <__divmodhi4_neg1>
    2cf6:	77 fd       	sbrc	r23, 7
    2cf8:	04 d0       	rcall	.+8      	; 0x2d02 <__divmodhi4_neg2>
    2cfa:	2e d0       	rcall	.+92     	; 0x2d58 <__udivmodhi4>
    2cfc:	06 d0       	rcall	.+12     	; 0x2d0a <__divmodhi4_neg1>
    2cfe:	00 20       	and	r0, r0
    2d00:	1a f4       	brpl	.+6      	; 0x2d08 <__divmodhi4_exit>

00002d02 <__divmodhi4_neg2>:
    2d02:	70 95       	com	r23
    2d04:	61 95       	neg	r22
    2d06:	7f 4f       	sbci	r23, 0xFF	; 255

00002d08 <__divmodhi4_exit>:
    2d08:	08 95       	ret

00002d0a <__divmodhi4_neg1>:
    2d0a:	f6 f7       	brtc	.-4      	; 0x2d08 <__divmodhi4_exit>
    2d0c:	90 95       	com	r25
    2d0e:	81 95       	neg	r24
    2d10:	9f 4f       	sbci	r25, 0xFF	; 255
    2d12:	08 95       	ret

00002d14 <__udivmodsi4>:
    2d14:	a1 e2       	ldi	r26, 0x21	; 33
    2d16:	1a 2e       	mov	r1, r26
    2d18:	aa 1b       	sub	r26, r26
    2d1a:	bb 1b       	sub	r27, r27
    2d1c:	fd 01       	movw	r30, r26
    2d1e:	0d c0       	rjmp	.+26     	; 0x2d3a <__udivmodsi4_ep>

00002d20 <__udivmodsi4_loop>:
    2d20:	aa 1f       	adc	r26, r26
    2d22:	bb 1f       	adc	r27, r27
    2d24:	ee 1f       	adc	r30, r30
    2d26:	ff 1f       	adc	r31, r31
    2d28:	a2 17       	cp	r26, r18
    2d2a:	b3 07       	cpc	r27, r19
    2d2c:	e4 07       	cpc	r30, r20
    2d2e:	f5 07       	cpc	r31, r21
    2d30:	20 f0       	brcs	.+8      	; 0x2d3a <__udivmodsi4_ep>
    2d32:	a2 1b       	sub	r26, r18
    2d34:	b3 0b       	sbc	r27, r19
    2d36:	e4 0b       	sbc	r30, r20
    2d38:	f5 0b       	sbc	r31, r21

00002d3a <__udivmodsi4_ep>:
    2d3a:	66 1f       	adc	r22, r22
    2d3c:	77 1f       	adc	r23, r23
    2d3e:	88 1f       	adc	r24, r24
    2d40:	99 1f       	adc	r25, r25
    2d42:	1a 94       	dec	r1
    2d44:	69 f7       	brne	.-38     	; 0x2d20 <__udivmodsi4_loop>
    2d46:	60 95       	com	r22
    2d48:	70 95       	com	r23
    2d4a:	80 95       	com	r24
    2d4c:	90 95       	com	r25
    2d4e:	9b 01       	movw	r18, r22
    2d50:	ac 01       	movw	r20, r24
    2d52:	bd 01       	movw	r22, r26
    2d54:	cf 01       	movw	r24, r30
    2d56:	08 95       	ret

00002d58 <__udivmodhi4>:
    2d58:	aa 1b       	sub	r26, r26
    2d5a:	bb 1b       	sub	r27, r27
    2d5c:	51 e1       	ldi	r21, 0x11	; 17
    2d5e:	07 c0       	rjmp	.+14     	; 0x2d6e <__udivmodhi4_ep>

00002d60 <__udivmodhi4_loop>:
    2d60:	aa 1f       	adc	r26, r26
    2d62:	bb 1f       	adc	r27, r27
    2d64:	a6 17       	cp	r26, r22
    2d66:	b7 07       	cpc	r27, r23
    2d68:	10 f0       	brcs	.+4      	; 0x2d6e <__udivmodhi4_ep>
    2d6a:	a6 1b       	sub	r26, r22
    2d6c:	b7 0b       	sbc	r27, r23

00002d6e <__udivmodhi4_ep>:
    2d6e:	88 1f       	adc	r24, r24
    2d70:	99 1f       	adc	r25, r25
    2d72:	5a 95       	dec	r21
    2d74:	a9 f7       	brne	.-22     	; 0x2d60 <__udivmodhi4_loop>
    2d76:	80 95       	com	r24
    2d78:	90 95       	com	r25
    2d7a:	bc 01       	movw	r22, r24
    2d7c:	cd 01       	movw	r24, r26
    2d7e:	08 95       	ret

00002d80 <itoa>:
    2d80:	fb 01       	movw	r30, r22
    2d82:	9f 01       	movw	r18, r30
    2d84:	e8 94       	clt
    2d86:	42 30       	cpi	r20, 0x02	; 2
    2d88:	c4 f0       	brlt	.+48     	; 0x2dba <itoa+0x3a>
    2d8a:	45 32       	cpi	r20, 0x25	; 37
    2d8c:	b4 f4       	brge	.+44     	; 0x2dba <itoa+0x3a>
    2d8e:	4a 30       	cpi	r20, 0x0A	; 10
    2d90:	29 f4       	brne	.+10     	; 0x2d9c <itoa+0x1c>
    2d92:	97 fb       	bst	r25, 7
    2d94:	1e f4       	brtc	.+6      	; 0x2d9c <itoa+0x1c>
    2d96:	90 95       	com	r25
    2d98:	81 95       	neg	r24
    2d9a:	9f 4f       	sbci	r25, 0xFF	; 255
    2d9c:	64 2f       	mov	r22, r20
    2d9e:	77 27       	eor	r23, r23
    2da0:	0e 94 ac 16 	call	0x2d58	; 0x2d58 <__udivmodhi4>
    2da4:	80 5d       	subi	r24, 0xD0	; 208
    2da6:	8a 33       	cpi	r24, 0x3A	; 58
    2da8:	0c f0       	brlt	.+2      	; 0x2dac <itoa+0x2c>
    2daa:	89 5d       	subi	r24, 0xD9	; 217
    2dac:	81 93       	st	Z+, r24
    2dae:	cb 01       	movw	r24, r22
    2db0:	00 97       	sbiw	r24, 0x00	; 0
    2db2:	a1 f7       	brne	.-24     	; 0x2d9c <itoa+0x1c>
    2db4:	16 f4       	brtc	.+4      	; 0x2dba <itoa+0x3a>
    2db6:	5d e2       	ldi	r21, 0x2D	; 45
    2db8:	51 93       	st	Z+, r21
    2dba:	10 82       	st	Z, r1
    2dbc:	c9 01       	movw	r24, r18
    2dbe:	0c 94 e9 16 	jmp	0x2dd2	; 0x2dd2 <strrev>

00002dc2 <__eerd_byte_m644p>:
    2dc2:	f9 99       	sbic	0x1f, 1	; 31
    2dc4:	fe cf       	rjmp	.-4      	; 0x2dc2 <__eerd_byte_m644p>
    2dc6:	92 bd       	out	0x22, r25	; 34
    2dc8:	81 bd       	out	0x21, r24	; 33
    2dca:	f8 9a       	sbi	0x1f, 0	; 31
    2dcc:	99 27       	eor	r25, r25
    2dce:	80 b5       	in	r24, 0x20	; 32
    2dd0:	08 95       	ret

00002dd2 <strrev>:
    2dd2:	dc 01       	movw	r26, r24
    2dd4:	fc 01       	movw	r30, r24
    2dd6:	67 2f       	mov	r22, r23
    2dd8:	71 91       	ld	r23, Z+
    2dda:	77 23       	and	r23, r23
    2ddc:	e1 f7       	brne	.-8      	; 0x2dd6 <strrev+0x4>
    2dde:	32 97       	sbiw	r30, 0x02	; 2
    2de0:	04 c0       	rjmp	.+8      	; 0x2dea <strrev+0x18>
    2de2:	7c 91       	ld	r23, X
    2de4:	6d 93       	st	X+, r22
    2de6:	70 83       	st	Z, r23
    2de8:	62 91       	ld	r22, -Z
    2dea:	ae 17       	cp	r26, r30
    2dec:	bf 07       	cpc	r27, r31
    2dee:	c8 f3       	brcs	.-14     	; 0x2de2 <strrev+0x10>
    2df0:	08 95       	ret

00002df2 <_exit>:
    2df2:	f8 94       	cli

00002df4 <__stop_program>:
    2df4:	ff cf       	rjmp	.-2      	; 0x2df4 <__stop_program>
